ARM GAS  /tmp/ccRlcmy8.s 			page 1


   1              		.cpu cortex-m4
   2              		.eabi_attribute 27, 1
   3              		.eabi_attribute 28, 1
   4              		.eabi_attribute 20, 1
   5              		.eabi_attribute 21, 1
   6              		.eabi_attribute 23, 3
   7              		.eabi_attribute 24, 1
   8              		.eabi_attribute 25, 1
   9              		.eabi_attribute 26, 1
  10              		.eabi_attribute 30, 6
  11              		.eabi_attribute 34, 1
  12              		.eabi_attribute 18, 4
  13              		.file	"_syscalls.c"
  14              		.text
  15              	.Ltext0:
  16              		.cfi_sections	.debug_frame
  17              		.global	errno
  18              		.section	.bss.errno,"aw",%nobits
  19              		.align	2
  22              	errno:
  23 0000 00000000 		.space	4
  24              		.weak	__dso_handle
  25              		.section	.bss.__dso_handle,"aw",%nobits
  26              		.align	2
  29              	__dso_handle:
  30 0000 00000000 		.space	4
  31              		.section	.text.__initialize_args,"ax",%progbits
  32              		.align	1
  33              		.weak	__initialize_args
  34              		.arch armv7e-m
  35              		.syntax unified
  36              		.thumb
  37              		.thumb_func
  38              		.fpu fpv4-sp-d16
  40              	__initialize_args:
  41              	.LFB22:
  42              		.file 1 "Device_Startup/_syscalls.c"
   1:Device_Startup/_syscalls.c **** //
   2:Device_Startup/_syscalls.c **** // This file is part of the uOS++ III distribution
   3:Device_Startup/_syscalls.c **** // Parts of this file are from the newlib sources, issued under GPL.
   4:Device_Startup/_syscalls.c **** // Copyright (c) 2014 Liviu Ionescu
   5:Device_Startup/_syscalls.c **** //
   6:Device_Startup/_syscalls.c **** 
   7:Device_Startup/_syscalls.c **** // ----------------------------------------------------------------------------
   8:Device_Startup/_syscalls.c **** 
   9:Device_Startup/_syscalls.c **** int errno;
  10:Device_Startup/_syscalls.c **** void *__dso_handle __attribute__ ((weak));
  11:Device_Startup/_syscalls.c **** 
  12:Device_Startup/_syscalls.c **** // ----------------------------------------------------------------------------
  13:Device_Startup/_syscalls.c **** 
  14:Device_Startup/_syscalls.c **** #if !defined(OS_USE_SEMIHOSTING)
  15:Device_Startup/_syscalls.c **** 
  16:Device_Startup/_syscalls.c **** #include <_ansi.h>
  17:Device_Startup/_syscalls.c **** #include <_syslist.h>
  18:Device_Startup/_syscalls.c **** #include <errno.h>
  19:Device_Startup/_syscalls.c **** //#include <sys/types.h>
  20:Device_Startup/_syscalls.c **** #include <sys/stat.h>
ARM GAS  /tmp/ccRlcmy8.s 			page 2


  21:Device_Startup/_syscalls.c **** #include <sys/time.h>
  22:Device_Startup/_syscalls.c **** #include <sys/times.h>
  23:Device_Startup/_syscalls.c **** #include <limits.h>
  24:Device_Startup/_syscalls.c **** #include <signal.h>
  25:Device_Startup/_syscalls.c **** 
  26:Device_Startup/_syscalls.c **** void
  27:Device_Startup/_syscalls.c **** __initialize_args(int* p_argc, char*** p_argv);
  28:Device_Startup/_syscalls.c **** 
  29:Device_Startup/_syscalls.c **** // This is the standard default implementation for the routine to
  30:Device_Startup/_syscalls.c **** // process args. It returns a single empty arg.
  31:Device_Startup/_syscalls.c **** // For semihosting applications, this is redefined to get the real
  32:Device_Startup/_syscalls.c **** // args from the debugger. You can also use it if you decide to keep
  33:Device_Startup/_syscalls.c **** // some args in a non-volatile memory.
  34:Device_Startup/_syscalls.c **** 
  35:Device_Startup/_syscalls.c **** void __attribute__((weak))
  36:Device_Startup/_syscalls.c **** __initialize_args(int* p_argc, char*** p_argv)
  37:Device_Startup/_syscalls.c **** {
  43              		.loc 1 37 1
  44              		.cfi_startproc
  45              		@ args = 0, pretend = 0, frame = 8
  46              		@ frame_needed = 1, uses_anonymous_args = 0
  47              		@ link register save eliminated.
  48 0000 80B4     		push	{r7}
  49              	.LCFI0:
  50              		.cfi_def_cfa_offset 4
  51              		.cfi_offset 7, -4
  52 0002 83B0     		sub	sp, sp, #12
  53              	.LCFI1:
  54              		.cfi_def_cfa_offset 16
  55 0004 00AF     		add	r7, sp, #0
  56              	.LCFI2:
  57              		.cfi_def_cfa_register 7
  58 0006 7860     		str	r0, [r7, #4]
  59 0008 3960     		str	r1, [r7]
  38:Device_Startup/_syscalls.c ****     // By the time we reach this, the data and bss should have been initialised.
  39:Device_Startup/_syscalls.c **** 
  40:Device_Startup/_syscalls.c ****     // The strings pointed to by the argv array shall be modifiable by the
  41:Device_Startup/_syscalls.c ****     // program, and retain their last-stored values between program startup
  42:Device_Startup/_syscalls.c ****     // and program termination. (static, no const)
  43:Device_Startup/_syscalls.c ****     static char name[] = "";
  44:Device_Startup/_syscalls.c **** 
  45:Device_Startup/_syscalls.c ****     // The string pointed to by argv[0] represents the program name;
  46:Device_Startup/_syscalls.c ****     // argv[0][0] shall be the null character if the program name is not
  47:Device_Startup/_syscalls.c ****     // available from the host environment. argv[argc] shall be a null pointer.
  48:Device_Startup/_syscalls.c ****     // (static, no const)
  49:Device_Startup/_syscalls.c ****     static char* argv[2] =
  50:Device_Startup/_syscalls.c ****     { name, NULL };
  51:Device_Startup/_syscalls.c **** 
  52:Device_Startup/_syscalls.c ****     *p_argc = 1;
  60              		.loc 1 52 13
  61 000a 7B68     		ldr	r3, [r7, #4]
  62 000c 0122     		movs	r2, #1
  63 000e 1A60     		str	r2, [r3]
  53:Device_Startup/_syscalls.c ****     *p_argv = &argv[0];
  64              		.loc 1 53 13
  65 0010 3B68     		ldr	r3, [r7]
  66 0012 044A     		ldr	r2, .L3
ARM GAS  /tmp/ccRlcmy8.s 			page 3


  67 0014 1A60     		str	r2, [r3]
  54:Device_Startup/_syscalls.c ****     return;
  68              		.loc 1 54 5
  69 0016 00BF     		nop
  55:Device_Startup/_syscalls.c **** }
  70              		.loc 1 55 1
  71 0018 0C37     		adds	r7, r7, #12
  72              	.LCFI3:
  73              		.cfi_def_cfa_offset 4
  74 001a BD46     		mov	sp, r7
  75              	.LCFI4:
  76              		.cfi_def_cfa_register 13
  77              		@ sp needed
  78 001c 5DF8047B 		ldr	r7, [sp], #4
  79              	.LCFI5:
  80              		.cfi_restore 7
  81              		.cfi_def_cfa_offset 0
  82 0020 7047     		bx	lr
  83              	.L4:
  84 0022 00BF     		.align	2
  85              	.L3:
  86 0024 00000000 		.word	argv.1
  87              		.cfi_endproc
  88              	.LFE22:
  90              		.section	.text.raise,"ax",%progbits
  91              		.align	1
  92              		.global	raise
  93              		.syntax unified
  94              		.thumb
  95              		.thumb_func
  96              		.fpu fpv4-sp-d16
  98              	raise:
  99              	.LFB23:
  56:Device_Startup/_syscalls.c **** 
  57:Device_Startup/_syscalls.c **** // These functions are defined here to avoid linker errors in freestanding
  58:Device_Startup/_syscalls.c **** // applications. They might be called in some error cases from library
  59:Device_Startup/_syscalls.c **** // code.
  60:Device_Startup/_syscalls.c **** //
  61:Device_Startup/_syscalls.c **** // If you detect other functions to be needed, just let us know
  62:Device_Startup/_syscalls.c **** // and we'll add them.
  63:Device_Startup/_syscalls.c **** 
  64:Device_Startup/_syscalls.c **** int
  65:Device_Startup/_syscalls.c **** raise(int sig __attribute__((unused)))
  66:Device_Startup/_syscalls.c **** {
 100              		.loc 1 66 1
 101              		.cfi_startproc
 102              		@ args = 0, pretend = 0, frame = 8
 103              		@ frame_needed = 1, uses_anonymous_args = 0
 104 0000 80B5     		push	{r7, lr}
 105              	.LCFI6:
 106              		.cfi_def_cfa_offset 8
 107              		.cfi_offset 7, -8
 108              		.cfi_offset 14, -4
 109 0002 82B0     		sub	sp, sp, #8
 110              	.LCFI7:
 111              		.cfi_def_cfa_offset 16
 112 0004 00AF     		add	r7, sp, #0
ARM GAS  /tmp/ccRlcmy8.s 			page 4


 113              	.LCFI8:
 114              		.cfi_def_cfa_register 7
 115 0006 7860     		str	r0, [r7, #4]
  67:Device_Startup/_syscalls.c ****     errno = ENOSYS;
 116              		.loc 1 67 5
 117 0008 FFF7FEFF 		bl	__errno
 118 000c 0346     		mov	r3, r0
 119              		.loc 1 67 11
 120 000e 5822     		movs	r2, #88
 121 0010 1A60     		str	r2, [r3]
  68:Device_Startup/_syscalls.c ****     return -1;
 122              		.loc 1 68 12
 123 0012 4FF0FF33 		mov	r3, #-1
  69:Device_Startup/_syscalls.c **** }
 124              		.loc 1 69 1
 125 0016 1846     		mov	r0, r3
 126 0018 0837     		adds	r7, r7, #8
 127              	.LCFI9:
 128              		.cfi_def_cfa_offset 8
 129 001a BD46     		mov	sp, r7
 130              	.LCFI10:
 131              		.cfi_def_cfa_register 13
 132              		@ sp needed
 133 001c 80BD     		pop	{r7, pc}
 134              		.cfi_endproc
 135              	.LFE23:
 137              		.section	.text.kill,"ax",%progbits
 138              		.align	1
 139              		.global	kill
 140              		.syntax unified
 141              		.thumb
 142              		.thumb_func
 143              		.fpu fpv4-sp-d16
 145              	kill:
 146              	.LFB24:
  70:Device_Startup/_syscalls.c **** 
  71:Device_Startup/_syscalls.c **** int
  72:Device_Startup/_syscalls.c **** kill(pid_t pid, int sig);
  73:Device_Startup/_syscalls.c **** 
  74:Device_Startup/_syscalls.c **** int
  75:Device_Startup/_syscalls.c **** kill(pid_t pid __attribute__((unused)), int sig __attribute__((unused)))
  76:Device_Startup/_syscalls.c **** {
 147              		.loc 1 76 1
 148              		.cfi_startproc
 149              		@ args = 0, pretend = 0, frame = 8
 150              		@ frame_needed = 1, uses_anonymous_args = 0
 151 0000 80B5     		push	{r7, lr}
 152              	.LCFI11:
 153              		.cfi_def_cfa_offset 8
 154              		.cfi_offset 7, -8
 155              		.cfi_offset 14, -4
 156 0002 82B0     		sub	sp, sp, #8
 157              	.LCFI12:
 158              		.cfi_def_cfa_offset 16
 159 0004 00AF     		add	r7, sp, #0
 160              	.LCFI13:
 161              		.cfi_def_cfa_register 7
ARM GAS  /tmp/ccRlcmy8.s 			page 5


 162 0006 7860     		str	r0, [r7, #4]
 163 0008 3960     		str	r1, [r7]
  77:Device_Startup/_syscalls.c ****     errno = ENOSYS;
 164              		.loc 1 77 5
 165 000a FFF7FEFF 		bl	__errno
 166 000e 0346     		mov	r3, r0
 167              		.loc 1 77 11
 168 0010 5822     		movs	r2, #88
 169 0012 1A60     		str	r2, [r3]
  78:Device_Startup/_syscalls.c ****     return -1;
 170              		.loc 1 78 12
 171 0014 4FF0FF33 		mov	r3, #-1
  79:Device_Startup/_syscalls.c **** }
 172              		.loc 1 79 1
 173 0018 1846     		mov	r0, r3
 174 001a 0837     		adds	r7, r7, #8
 175              	.LCFI14:
 176              		.cfi_def_cfa_offset 8
 177 001c BD46     		mov	sp, r7
 178              	.LCFI15:
 179              		.cfi_def_cfa_register 13
 180              		@ sp needed
 181 001e 80BD     		pop	{r7, pc}
 182              		.cfi_endproc
 183              	.LFE24:
 185              		.global	__env
 186              		.section	.bss.__env,"aw",%nobits
 187              		.align	2
 190              	__env:
 191 0000 00000000 		.space	4
 192              		.global	environ
 193              		.section	.data.environ,"aw"
 194              		.align	2
 197              	environ:
 198 0000 00000000 		.word	__env
 199              		.section	.text._chown,"ax",%progbits
 200              		.align	1
 201              		.weak	_chown
 202              		.syntax unified
 203              		.thumb
 204              		.thumb_func
 205              		.fpu fpv4-sp-d16
 207              	_chown:
 208              	.LFB25:
  80:Device_Startup/_syscalls.c **** 
  81:Device_Startup/_syscalls.c **** #endif // !defined(OS_USE_SEMIHOSTING)
  82:Device_Startup/_syscalls.c **** 
  83:Device_Startup/_syscalls.c **** // ----------------------------------------------------------------------------
  84:Device_Startup/_syscalls.c **** 
  85:Device_Startup/_syscalls.c **** // If you need the empty definitions, remove the -ffreestanding option.
  86:Device_Startup/_syscalls.c **** 
  87:Device_Startup/_syscalls.c **** #if __STDC_HOSTED__ == 1
  88:Device_Startup/_syscalls.c **** 
  89:Device_Startup/_syscalls.c **** char* __env[1] =
  90:Device_Startup/_syscalls.c **** { 0 };
  91:Device_Startup/_syscalls.c **** char** environ = __env;
  92:Device_Startup/_syscalls.c **** 
ARM GAS  /tmp/ccRlcmy8.s 			page 6


  93:Device_Startup/_syscalls.c **** #if !defined(OS_USE_SEMIHOSTING)
  94:Device_Startup/_syscalls.c **** 
  95:Device_Startup/_syscalls.c **** // Forward declarations
  96:Device_Startup/_syscalls.c **** 
  97:Device_Startup/_syscalls.c **** int
  98:Device_Startup/_syscalls.c **** _chown(const char* path, uid_t owner, gid_t group);
  99:Device_Startup/_syscalls.c **** 
 100:Device_Startup/_syscalls.c **** int
 101:Device_Startup/_syscalls.c **** _close(int fildes);
 102:Device_Startup/_syscalls.c **** 
 103:Device_Startup/_syscalls.c **** int
 104:Device_Startup/_syscalls.c **** _execve(char* name, char** argv, char** env);
 105:Device_Startup/_syscalls.c **** 
 106:Device_Startup/_syscalls.c **** int
 107:Device_Startup/_syscalls.c **** _fork(void);
 108:Device_Startup/_syscalls.c **** 
 109:Device_Startup/_syscalls.c **** int
 110:Device_Startup/_syscalls.c **** _fstat(int fildes, struct stat* st);
 111:Device_Startup/_syscalls.c **** 
 112:Device_Startup/_syscalls.c **** int
 113:Device_Startup/_syscalls.c **** _getpid(void);
 114:Device_Startup/_syscalls.c **** 
 115:Device_Startup/_syscalls.c **** int
 116:Device_Startup/_syscalls.c **** _gettimeofday(struct timeval* ptimeval, void* ptimezone);
 117:Device_Startup/_syscalls.c **** 
 118:Device_Startup/_syscalls.c **** int
 119:Device_Startup/_syscalls.c **** _isatty(int file);
 120:Device_Startup/_syscalls.c **** 
 121:Device_Startup/_syscalls.c **** int
 122:Device_Startup/_syscalls.c **** _kill(int pid, int sig);
 123:Device_Startup/_syscalls.c **** 
 124:Device_Startup/_syscalls.c **** int
 125:Device_Startup/_syscalls.c **** _link(char* existing, char* _new);
 126:Device_Startup/_syscalls.c **** 
 127:Device_Startup/_syscalls.c **** int
 128:Device_Startup/_syscalls.c **** _lseek(int file, int ptr, int dir);
 129:Device_Startup/_syscalls.c **** 
 130:Device_Startup/_syscalls.c **** int
 131:Device_Startup/_syscalls.c **** _open(char* file, int flags, int mode);
 132:Device_Startup/_syscalls.c **** 
 133:Device_Startup/_syscalls.c **** int
 134:Device_Startup/_syscalls.c **** _read(int file, char* ptr, int len);
 135:Device_Startup/_syscalls.c **** 
 136:Device_Startup/_syscalls.c **** int
 137:Device_Startup/_syscalls.c **** _readlink(const char* path, char* buf, size_t bufsize);
 138:Device_Startup/_syscalls.c **** 
 139:Device_Startup/_syscalls.c **** int
 140:Device_Startup/_syscalls.c **** _stat(const char* file, struct stat* st);
 141:Device_Startup/_syscalls.c **** 
 142:Device_Startup/_syscalls.c **** int
 143:Device_Startup/_syscalls.c **** _symlink(const char* path1, const char* path2);
 144:Device_Startup/_syscalls.c **** 
 145:Device_Startup/_syscalls.c **** clock_t
 146:Device_Startup/_syscalls.c **** _times(struct tms* buf);
 147:Device_Startup/_syscalls.c **** 
 148:Device_Startup/_syscalls.c **** int
 149:Device_Startup/_syscalls.c **** _unlink(char* name);
ARM GAS  /tmp/ccRlcmy8.s 			page 7


 150:Device_Startup/_syscalls.c **** 
 151:Device_Startup/_syscalls.c **** int
 152:Device_Startup/_syscalls.c **** _wait(int* status);
 153:Device_Startup/_syscalls.c **** 
 154:Device_Startup/_syscalls.c **** int
 155:Device_Startup/_syscalls.c **** _write(int file, char* ptr, int len);
 156:Device_Startup/_syscalls.c **** 
 157:Device_Startup/_syscalls.c **** // Definitions
 158:Device_Startup/_syscalls.c **** 
 159:Device_Startup/_syscalls.c **** int __attribute__((weak))
 160:Device_Startup/_syscalls.c **** _chown(const char* path __attribute__((unused)),
 161:Device_Startup/_syscalls.c ****        uid_t owner __attribute__((unused)), gid_t group __attribute__((unused)))
 162:Device_Startup/_syscalls.c **** {
 209              		.loc 1 162 1
 210              		.cfi_startproc
 211              		@ args = 0, pretend = 0, frame = 8
 212              		@ frame_needed = 1, uses_anonymous_args = 0
 213 0000 80B5     		push	{r7, lr}
 214              	.LCFI16:
 215              		.cfi_def_cfa_offset 8
 216              		.cfi_offset 7, -8
 217              		.cfi_offset 14, -4
 218 0002 82B0     		sub	sp, sp, #8
 219              	.LCFI17:
 220              		.cfi_def_cfa_offset 16
 221 0004 00AF     		add	r7, sp, #0
 222              	.LCFI18:
 223              		.cfi_def_cfa_register 7
 224 0006 7860     		str	r0, [r7, #4]
 225 0008 0B46     		mov	r3, r1
 226 000a 7B80     		strh	r3, [r7, #2]	@ movhi
 227 000c 1346     		mov	r3, r2	@ movhi
 228 000e 3B80     		strh	r3, [r7]	@ movhi
 163:Device_Startup/_syscalls.c ****     errno = ENOSYS;
 229              		.loc 1 163 5
 230 0010 FFF7FEFF 		bl	__errno
 231 0014 0346     		mov	r3, r0
 232              		.loc 1 163 11
 233 0016 5822     		movs	r2, #88
 234 0018 1A60     		str	r2, [r3]
 164:Device_Startup/_syscalls.c ****     return -1;
 235              		.loc 1 164 12
 236 001a 4FF0FF33 		mov	r3, #-1
 165:Device_Startup/_syscalls.c **** }
 237              		.loc 1 165 1
 238 001e 1846     		mov	r0, r3
 239 0020 0837     		adds	r7, r7, #8
 240              	.LCFI19:
 241              		.cfi_def_cfa_offset 8
 242 0022 BD46     		mov	sp, r7
 243              	.LCFI20:
 244              		.cfi_def_cfa_register 13
 245              		@ sp needed
 246 0024 80BD     		pop	{r7, pc}
 247              		.cfi_endproc
 248              	.LFE25:
 250              		.section	.text._close,"ax",%progbits
ARM GAS  /tmp/ccRlcmy8.s 			page 8


 251              		.align	1
 252              		.weak	_close
 253              		.syntax unified
 254              		.thumb
 255              		.thumb_func
 256              		.fpu fpv4-sp-d16
 258              	_close:
 259              	.LFB26:
 166:Device_Startup/_syscalls.c **** 
 167:Device_Startup/_syscalls.c **** int __attribute__((weak))
 168:Device_Startup/_syscalls.c **** _close(int fildes __attribute__((unused)))
 169:Device_Startup/_syscalls.c **** {
 260              		.loc 1 169 1
 261              		.cfi_startproc
 262              		@ args = 0, pretend = 0, frame = 8
 263              		@ frame_needed = 1, uses_anonymous_args = 0
 264 0000 80B5     		push	{r7, lr}
 265              	.LCFI21:
 266              		.cfi_def_cfa_offset 8
 267              		.cfi_offset 7, -8
 268              		.cfi_offset 14, -4
 269 0002 82B0     		sub	sp, sp, #8
 270              	.LCFI22:
 271              		.cfi_def_cfa_offset 16
 272 0004 00AF     		add	r7, sp, #0
 273              	.LCFI23:
 274              		.cfi_def_cfa_register 7
 275 0006 7860     		str	r0, [r7, #4]
 170:Device_Startup/_syscalls.c ****     errno = ENOSYS;
 276              		.loc 1 170 5
 277 0008 FFF7FEFF 		bl	__errno
 278 000c 0346     		mov	r3, r0
 279              		.loc 1 170 11
 280 000e 5822     		movs	r2, #88
 281 0010 1A60     		str	r2, [r3]
 171:Device_Startup/_syscalls.c ****     return -1;
 282              		.loc 1 171 12
 283 0012 4FF0FF33 		mov	r3, #-1
 172:Device_Startup/_syscalls.c **** }
 284              		.loc 1 172 1
 285 0016 1846     		mov	r0, r3
 286 0018 0837     		adds	r7, r7, #8
 287              	.LCFI24:
 288              		.cfi_def_cfa_offset 8
 289 001a BD46     		mov	sp, r7
 290              	.LCFI25:
 291              		.cfi_def_cfa_register 13
 292              		@ sp needed
 293 001c 80BD     		pop	{r7, pc}
 294              		.cfi_endproc
 295              	.LFE26:
 297              		.section	.text._execve,"ax",%progbits
 298              		.align	1
 299              		.weak	_execve
 300              		.syntax unified
 301              		.thumb
 302              		.thumb_func
ARM GAS  /tmp/ccRlcmy8.s 			page 9


 303              		.fpu fpv4-sp-d16
 305              	_execve:
 306              	.LFB27:
 173:Device_Startup/_syscalls.c **** 
 174:Device_Startup/_syscalls.c **** int __attribute__((weak))
 175:Device_Startup/_syscalls.c **** _execve(char* name __attribute__((unused)), char** argv __attribute__((unused)),
 176:Device_Startup/_syscalls.c ****         char** env __attribute__((unused)))
 177:Device_Startup/_syscalls.c **** {
 307              		.loc 1 177 1
 308              		.cfi_startproc
 309              		@ args = 0, pretend = 0, frame = 16
 310              		@ frame_needed = 1, uses_anonymous_args = 0
 311 0000 80B5     		push	{r7, lr}
 312              	.LCFI26:
 313              		.cfi_def_cfa_offset 8
 314              		.cfi_offset 7, -8
 315              		.cfi_offset 14, -4
 316 0002 84B0     		sub	sp, sp, #16
 317              	.LCFI27:
 318              		.cfi_def_cfa_offset 24
 319 0004 00AF     		add	r7, sp, #0
 320              	.LCFI28:
 321              		.cfi_def_cfa_register 7
 322 0006 F860     		str	r0, [r7, #12]
 323 0008 B960     		str	r1, [r7, #8]
 324 000a 7A60     		str	r2, [r7, #4]
 178:Device_Startup/_syscalls.c ****     errno = ENOSYS;
 325              		.loc 1 178 5
 326 000c FFF7FEFF 		bl	__errno
 327 0010 0346     		mov	r3, r0
 328              		.loc 1 178 11
 329 0012 5822     		movs	r2, #88
 330 0014 1A60     		str	r2, [r3]
 179:Device_Startup/_syscalls.c ****     return -1;
 331              		.loc 1 179 12
 332 0016 4FF0FF33 		mov	r3, #-1
 180:Device_Startup/_syscalls.c **** }
 333              		.loc 1 180 1
 334 001a 1846     		mov	r0, r3
 335 001c 1037     		adds	r7, r7, #16
 336              	.LCFI29:
 337              		.cfi_def_cfa_offset 8
 338 001e BD46     		mov	sp, r7
 339              	.LCFI30:
 340              		.cfi_def_cfa_register 13
 341              		@ sp needed
 342 0020 80BD     		pop	{r7, pc}
 343              		.cfi_endproc
 344              	.LFE27:
 346              		.section	.text._fork,"ax",%progbits
 347              		.align	1
 348              		.weak	_fork
 349              		.syntax unified
 350              		.thumb
 351              		.thumb_func
 352              		.fpu fpv4-sp-d16
 354              	_fork:
ARM GAS  /tmp/ccRlcmy8.s 			page 10


 355              	.LFB28:
 181:Device_Startup/_syscalls.c **** 
 182:Device_Startup/_syscalls.c **** int __attribute__((weak))
 183:Device_Startup/_syscalls.c **** _fork(void)
 184:Device_Startup/_syscalls.c **** {
 356              		.loc 1 184 1
 357              		.cfi_startproc
 358              		@ args = 0, pretend = 0, frame = 0
 359              		@ frame_needed = 1, uses_anonymous_args = 0
 360 0000 80B5     		push	{r7, lr}
 361              	.LCFI31:
 362              		.cfi_def_cfa_offset 8
 363              		.cfi_offset 7, -8
 364              		.cfi_offset 14, -4
 365 0002 00AF     		add	r7, sp, #0
 366              	.LCFI32:
 367              		.cfi_def_cfa_register 7
 185:Device_Startup/_syscalls.c ****     errno = ENOSYS;
 368              		.loc 1 185 5
 369 0004 FFF7FEFF 		bl	__errno
 370 0008 0346     		mov	r3, r0
 371              		.loc 1 185 11
 372 000a 5822     		movs	r2, #88
 373 000c 1A60     		str	r2, [r3]
 186:Device_Startup/_syscalls.c ****     return -1;
 374              		.loc 1 186 12
 375 000e 4FF0FF33 		mov	r3, #-1
 187:Device_Startup/_syscalls.c **** }
 376              		.loc 1 187 1
 377 0012 1846     		mov	r0, r3
 378 0014 80BD     		pop	{r7, pc}
 379              		.cfi_endproc
 380              	.LFE28:
 382              		.section	.text._fstat,"ax",%progbits
 383              		.align	1
 384              		.weak	_fstat
 385              		.syntax unified
 386              		.thumb
 387              		.thumb_func
 388              		.fpu fpv4-sp-d16
 390              	_fstat:
 391              	.LFB29:
 188:Device_Startup/_syscalls.c **** 
 189:Device_Startup/_syscalls.c **** int __attribute__((weak))
 190:Device_Startup/_syscalls.c **** _fstat(int fildes __attribute__((unused)),
 191:Device_Startup/_syscalls.c ****        struct stat* st __attribute__((unused)))
 192:Device_Startup/_syscalls.c **** {
 392              		.loc 1 192 1
 393              		.cfi_startproc
 394              		@ args = 0, pretend = 0, frame = 8
 395              		@ frame_needed = 1, uses_anonymous_args = 0
 396 0000 80B5     		push	{r7, lr}
 397              	.LCFI33:
 398              		.cfi_def_cfa_offset 8
 399              		.cfi_offset 7, -8
 400              		.cfi_offset 14, -4
 401 0002 82B0     		sub	sp, sp, #8
ARM GAS  /tmp/ccRlcmy8.s 			page 11


 402              	.LCFI34:
 403              		.cfi_def_cfa_offset 16
 404 0004 00AF     		add	r7, sp, #0
 405              	.LCFI35:
 406              		.cfi_def_cfa_register 7
 407 0006 7860     		str	r0, [r7, #4]
 408 0008 3960     		str	r1, [r7]
 193:Device_Startup/_syscalls.c ****     errno = ENOSYS;
 409              		.loc 1 193 5
 410 000a FFF7FEFF 		bl	__errno
 411 000e 0346     		mov	r3, r0
 412              		.loc 1 193 11
 413 0010 5822     		movs	r2, #88
 414 0012 1A60     		str	r2, [r3]
 194:Device_Startup/_syscalls.c ****     return -1;
 415              		.loc 1 194 12
 416 0014 4FF0FF33 		mov	r3, #-1
 195:Device_Startup/_syscalls.c **** }
 417              		.loc 1 195 1
 418 0018 1846     		mov	r0, r3
 419 001a 0837     		adds	r7, r7, #8
 420              	.LCFI36:
 421              		.cfi_def_cfa_offset 8
 422 001c BD46     		mov	sp, r7
 423              	.LCFI37:
 424              		.cfi_def_cfa_register 13
 425              		@ sp needed
 426 001e 80BD     		pop	{r7, pc}
 427              		.cfi_endproc
 428              	.LFE29:
 430              		.section	.text._getpid,"ax",%progbits
 431              		.align	1
 432              		.weak	_getpid
 433              		.syntax unified
 434              		.thumb
 435              		.thumb_func
 436              		.fpu fpv4-sp-d16
 438              	_getpid:
 439              	.LFB30:
 196:Device_Startup/_syscalls.c **** 
 197:Device_Startup/_syscalls.c **** int __attribute__((weak))
 198:Device_Startup/_syscalls.c **** _getpid(void)
 199:Device_Startup/_syscalls.c **** {
 440              		.loc 1 199 1
 441              		.cfi_startproc
 442              		@ args = 0, pretend = 0, frame = 0
 443              		@ frame_needed = 1, uses_anonymous_args = 0
 444 0000 80B5     		push	{r7, lr}
 445              	.LCFI38:
 446              		.cfi_def_cfa_offset 8
 447              		.cfi_offset 7, -8
 448              		.cfi_offset 14, -4
 449 0002 00AF     		add	r7, sp, #0
 450              	.LCFI39:
 451              		.cfi_def_cfa_register 7
 200:Device_Startup/_syscalls.c ****     errno = ENOSYS;
 452              		.loc 1 200 5
ARM GAS  /tmp/ccRlcmy8.s 			page 12


 453 0004 FFF7FEFF 		bl	__errno
 454 0008 0346     		mov	r3, r0
 455              		.loc 1 200 11
 456 000a 5822     		movs	r2, #88
 457 000c 1A60     		str	r2, [r3]
 201:Device_Startup/_syscalls.c ****     return -1;
 458              		.loc 1 201 12
 459 000e 4FF0FF33 		mov	r3, #-1
 202:Device_Startup/_syscalls.c **** }
 460              		.loc 1 202 1
 461 0012 1846     		mov	r0, r3
 462 0014 80BD     		pop	{r7, pc}
 463              		.cfi_endproc
 464              	.LFE30:
 466              		.section	.text._gettimeofday,"ax",%progbits
 467              		.align	1
 468              		.weak	_gettimeofday
 469              		.syntax unified
 470              		.thumb
 471              		.thumb_func
 472              		.fpu fpv4-sp-d16
 474              	_gettimeofday:
 475              	.LFB31:
 203:Device_Startup/_syscalls.c **** 
 204:Device_Startup/_syscalls.c **** int __attribute__((weak))
 205:Device_Startup/_syscalls.c **** _gettimeofday(struct timeval* ptimeval __attribute__((unused)),
 206:Device_Startup/_syscalls.c ****               void* ptimezone __attribute__((unused)))
 207:Device_Startup/_syscalls.c **** {
 476              		.loc 1 207 1
 477              		.cfi_startproc
 478              		@ args = 0, pretend = 0, frame = 8
 479              		@ frame_needed = 1, uses_anonymous_args = 0
 480 0000 80B5     		push	{r7, lr}
 481              	.LCFI40:
 482              		.cfi_def_cfa_offset 8
 483              		.cfi_offset 7, -8
 484              		.cfi_offset 14, -4
 485 0002 82B0     		sub	sp, sp, #8
 486              	.LCFI41:
 487              		.cfi_def_cfa_offset 16
 488 0004 00AF     		add	r7, sp, #0
 489              	.LCFI42:
 490              		.cfi_def_cfa_register 7
 491 0006 7860     		str	r0, [r7, #4]
 492 0008 3960     		str	r1, [r7]
 208:Device_Startup/_syscalls.c ****     errno = ENOSYS;
 493              		.loc 1 208 5
 494 000a FFF7FEFF 		bl	__errno
 495 000e 0346     		mov	r3, r0
 496              		.loc 1 208 11
 497 0010 5822     		movs	r2, #88
 498 0012 1A60     		str	r2, [r3]
 209:Device_Startup/_syscalls.c ****     return -1;
 499              		.loc 1 209 12
 500 0014 4FF0FF33 		mov	r3, #-1
 210:Device_Startup/_syscalls.c **** }
 501              		.loc 1 210 1
ARM GAS  /tmp/ccRlcmy8.s 			page 13


 502 0018 1846     		mov	r0, r3
 503 001a 0837     		adds	r7, r7, #8
 504              	.LCFI43:
 505              		.cfi_def_cfa_offset 8
 506 001c BD46     		mov	sp, r7
 507              	.LCFI44:
 508              		.cfi_def_cfa_register 13
 509              		@ sp needed
 510 001e 80BD     		pop	{r7, pc}
 511              		.cfi_endproc
 512              	.LFE31:
 514              		.section	.text._isatty,"ax",%progbits
 515              		.align	1
 516              		.weak	_isatty
 517              		.syntax unified
 518              		.thumb
 519              		.thumb_func
 520              		.fpu fpv4-sp-d16
 522              	_isatty:
 523              	.LFB32:
 211:Device_Startup/_syscalls.c **** 
 212:Device_Startup/_syscalls.c **** int __attribute__((weak))
 213:Device_Startup/_syscalls.c **** _isatty(int file __attribute__((unused)))
 214:Device_Startup/_syscalls.c **** {
 524              		.loc 1 214 1
 525              		.cfi_startproc
 526              		@ args = 0, pretend = 0, frame = 8
 527              		@ frame_needed = 1, uses_anonymous_args = 0
 528 0000 80B5     		push	{r7, lr}
 529              	.LCFI45:
 530              		.cfi_def_cfa_offset 8
 531              		.cfi_offset 7, -8
 532              		.cfi_offset 14, -4
 533 0002 82B0     		sub	sp, sp, #8
 534              	.LCFI46:
 535              		.cfi_def_cfa_offset 16
 536 0004 00AF     		add	r7, sp, #0
 537              	.LCFI47:
 538              		.cfi_def_cfa_register 7
 539 0006 7860     		str	r0, [r7, #4]
 215:Device_Startup/_syscalls.c ****     errno = ENOSYS;
 540              		.loc 1 215 5
 541 0008 FFF7FEFF 		bl	__errno
 542 000c 0346     		mov	r3, r0
 543              		.loc 1 215 11
 544 000e 5822     		movs	r2, #88
 545 0010 1A60     		str	r2, [r3]
 216:Device_Startup/_syscalls.c ****     return 0;
 546              		.loc 1 216 12
 547 0012 0023     		movs	r3, #0
 217:Device_Startup/_syscalls.c **** }
 548              		.loc 1 217 1
 549 0014 1846     		mov	r0, r3
 550 0016 0837     		adds	r7, r7, #8
 551              	.LCFI48:
 552              		.cfi_def_cfa_offset 8
 553 0018 BD46     		mov	sp, r7
ARM GAS  /tmp/ccRlcmy8.s 			page 14


 554              	.LCFI49:
 555              		.cfi_def_cfa_register 13
 556              		@ sp needed
 557 001a 80BD     		pop	{r7, pc}
 558              		.cfi_endproc
 559              	.LFE32:
 561              		.section	.text._kill,"ax",%progbits
 562              		.align	1
 563              		.weak	_kill
 564              		.syntax unified
 565              		.thumb
 566              		.thumb_func
 567              		.fpu fpv4-sp-d16
 569              	_kill:
 570              	.LFB33:
 218:Device_Startup/_syscalls.c **** 
 219:Device_Startup/_syscalls.c **** int __attribute__((weak))
 220:Device_Startup/_syscalls.c **** _kill(int pid __attribute__((unused)), int sig __attribute__((unused)))
 221:Device_Startup/_syscalls.c **** {
 571              		.loc 1 221 1
 572              		.cfi_startproc
 573              		@ args = 0, pretend = 0, frame = 8
 574              		@ frame_needed = 1, uses_anonymous_args = 0
 575 0000 80B5     		push	{r7, lr}
 576              	.LCFI50:
 577              		.cfi_def_cfa_offset 8
 578              		.cfi_offset 7, -8
 579              		.cfi_offset 14, -4
 580 0002 82B0     		sub	sp, sp, #8
 581              	.LCFI51:
 582              		.cfi_def_cfa_offset 16
 583 0004 00AF     		add	r7, sp, #0
 584              	.LCFI52:
 585              		.cfi_def_cfa_register 7
 586 0006 7860     		str	r0, [r7, #4]
 587 0008 3960     		str	r1, [r7]
 222:Device_Startup/_syscalls.c ****     errno = ENOSYS;
 588              		.loc 1 222 5
 589 000a FFF7FEFF 		bl	__errno
 590 000e 0346     		mov	r3, r0
 591              		.loc 1 222 11
 592 0010 5822     		movs	r2, #88
 593 0012 1A60     		str	r2, [r3]
 223:Device_Startup/_syscalls.c ****     return -1;
 594              		.loc 1 223 12
 595 0014 4FF0FF33 		mov	r3, #-1
 224:Device_Startup/_syscalls.c **** }
 596              		.loc 1 224 1
 597 0018 1846     		mov	r0, r3
 598 001a 0837     		adds	r7, r7, #8
 599              	.LCFI53:
 600              		.cfi_def_cfa_offset 8
 601 001c BD46     		mov	sp, r7
 602              	.LCFI54:
 603              		.cfi_def_cfa_register 13
 604              		@ sp needed
 605 001e 80BD     		pop	{r7, pc}
ARM GAS  /tmp/ccRlcmy8.s 			page 15


 606              		.cfi_endproc
 607              	.LFE33:
 609              		.section	.text._link,"ax",%progbits
 610              		.align	1
 611              		.weak	_link
 612              		.syntax unified
 613              		.thumb
 614              		.thumb_func
 615              		.fpu fpv4-sp-d16
 617              	_link:
 618              	.LFB34:
 225:Device_Startup/_syscalls.c **** 
 226:Device_Startup/_syscalls.c **** int __attribute__((weak))
 227:Device_Startup/_syscalls.c **** _link(char* existing __attribute__((unused)),
 228:Device_Startup/_syscalls.c ****       char* _new __attribute__((unused)))
 229:Device_Startup/_syscalls.c **** {
 619              		.loc 1 229 1
 620              		.cfi_startproc
 621              		@ args = 0, pretend = 0, frame = 8
 622              		@ frame_needed = 1, uses_anonymous_args = 0
 623 0000 80B5     		push	{r7, lr}
 624              	.LCFI55:
 625              		.cfi_def_cfa_offset 8
 626              		.cfi_offset 7, -8
 627              		.cfi_offset 14, -4
 628 0002 82B0     		sub	sp, sp, #8
 629              	.LCFI56:
 630              		.cfi_def_cfa_offset 16
 631 0004 00AF     		add	r7, sp, #0
 632              	.LCFI57:
 633              		.cfi_def_cfa_register 7
 634 0006 7860     		str	r0, [r7, #4]
 635 0008 3960     		str	r1, [r7]
 230:Device_Startup/_syscalls.c ****     errno = ENOSYS;
 636              		.loc 1 230 5
 637 000a FFF7FEFF 		bl	__errno
 638 000e 0346     		mov	r3, r0
 639              		.loc 1 230 11
 640 0010 5822     		movs	r2, #88
 641 0012 1A60     		str	r2, [r3]
 231:Device_Startup/_syscalls.c ****     return -1;
 642              		.loc 1 231 12
 643 0014 4FF0FF33 		mov	r3, #-1
 232:Device_Startup/_syscalls.c **** }
 644              		.loc 1 232 1
 645 0018 1846     		mov	r0, r3
 646 001a 0837     		adds	r7, r7, #8
 647              	.LCFI58:
 648              		.cfi_def_cfa_offset 8
 649 001c BD46     		mov	sp, r7
 650              	.LCFI59:
 651              		.cfi_def_cfa_register 13
 652              		@ sp needed
 653 001e 80BD     		pop	{r7, pc}
 654              		.cfi_endproc
 655              	.LFE34:
 657              		.section	.text._lseek,"ax",%progbits
ARM GAS  /tmp/ccRlcmy8.s 			page 16


 658              		.align	1
 659              		.weak	_lseek
 660              		.syntax unified
 661              		.thumb
 662              		.thumb_func
 663              		.fpu fpv4-sp-d16
 665              	_lseek:
 666              	.LFB35:
 233:Device_Startup/_syscalls.c **** 
 234:Device_Startup/_syscalls.c **** int __attribute__((weak))
 235:Device_Startup/_syscalls.c **** _lseek(int file __attribute__((unused)), int ptr __attribute__((unused)),
 236:Device_Startup/_syscalls.c ****        int dir __attribute__((unused)))
 237:Device_Startup/_syscalls.c **** {
 667              		.loc 1 237 1
 668              		.cfi_startproc
 669              		@ args = 0, pretend = 0, frame = 16
 670              		@ frame_needed = 1, uses_anonymous_args = 0
 671 0000 80B5     		push	{r7, lr}
 672              	.LCFI60:
 673              		.cfi_def_cfa_offset 8
 674              		.cfi_offset 7, -8
 675              		.cfi_offset 14, -4
 676 0002 84B0     		sub	sp, sp, #16
 677              	.LCFI61:
 678              		.cfi_def_cfa_offset 24
 679 0004 00AF     		add	r7, sp, #0
 680              	.LCFI62:
 681              		.cfi_def_cfa_register 7
 682 0006 F860     		str	r0, [r7, #12]
 683 0008 B960     		str	r1, [r7, #8]
 684 000a 7A60     		str	r2, [r7, #4]
 238:Device_Startup/_syscalls.c ****     errno = ENOSYS;
 685              		.loc 1 238 5
 686 000c FFF7FEFF 		bl	__errno
 687 0010 0346     		mov	r3, r0
 688              		.loc 1 238 11
 689 0012 5822     		movs	r2, #88
 690 0014 1A60     		str	r2, [r3]
 239:Device_Startup/_syscalls.c ****     return -1;
 691              		.loc 1 239 12
 692 0016 4FF0FF33 		mov	r3, #-1
 240:Device_Startup/_syscalls.c **** }
 693              		.loc 1 240 1
 694 001a 1846     		mov	r0, r3
 695 001c 1037     		adds	r7, r7, #16
 696              	.LCFI63:
 697              		.cfi_def_cfa_offset 8
 698 001e BD46     		mov	sp, r7
 699              	.LCFI64:
 700              		.cfi_def_cfa_register 13
 701              		@ sp needed
 702 0020 80BD     		pop	{r7, pc}
 703              		.cfi_endproc
 704              	.LFE35:
 706              		.section	.text._open,"ax",%progbits
 707              		.align	1
 708              		.weak	_open
ARM GAS  /tmp/ccRlcmy8.s 			page 17


 709              		.syntax unified
 710              		.thumb
 711              		.thumb_func
 712              		.fpu fpv4-sp-d16
 714              	_open:
 715              	.LFB36:
 241:Device_Startup/_syscalls.c **** 
 242:Device_Startup/_syscalls.c **** int __attribute__((weak))
 243:Device_Startup/_syscalls.c **** _open(char* file __attribute__((unused)), int flags __attribute__((unused)),
 244:Device_Startup/_syscalls.c ****       int mode __attribute__((unused)))
 245:Device_Startup/_syscalls.c **** {
 716              		.loc 1 245 1
 717              		.cfi_startproc
 718              		@ args = 0, pretend = 0, frame = 16
 719              		@ frame_needed = 1, uses_anonymous_args = 0
 720 0000 80B5     		push	{r7, lr}
 721              	.LCFI65:
 722              		.cfi_def_cfa_offset 8
 723              		.cfi_offset 7, -8
 724              		.cfi_offset 14, -4
 725 0002 84B0     		sub	sp, sp, #16
 726              	.LCFI66:
 727              		.cfi_def_cfa_offset 24
 728 0004 00AF     		add	r7, sp, #0
 729              	.LCFI67:
 730              		.cfi_def_cfa_register 7
 731 0006 F860     		str	r0, [r7, #12]
 732 0008 B960     		str	r1, [r7, #8]
 733 000a 7A60     		str	r2, [r7, #4]
 246:Device_Startup/_syscalls.c ****     errno = ENOSYS;
 734              		.loc 1 246 5
 735 000c FFF7FEFF 		bl	__errno
 736 0010 0346     		mov	r3, r0
 737              		.loc 1 246 11
 738 0012 5822     		movs	r2, #88
 739 0014 1A60     		str	r2, [r3]
 247:Device_Startup/_syscalls.c ****     return -1;
 740              		.loc 1 247 12
 741 0016 4FF0FF33 		mov	r3, #-1
 248:Device_Startup/_syscalls.c **** }
 742              		.loc 1 248 1
 743 001a 1846     		mov	r0, r3
 744 001c 1037     		adds	r7, r7, #16
 745              	.LCFI68:
 746              		.cfi_def_cfa_offset 8
 747 001e BD46     		mov	sp, r7
 748              	.LCFI69:
 749              		.cfi_def_cfa_register 13
 750              		@ sp needed
 751 0020 80BD     		pop	{r7, pc}
 752              		.cfi_endproc
 753              	.LFE36:
 755              		.section	.text._read,"ax",%progbits
 756              		.align	1
 757              		.weak	_read
 758              		.syntax unified
 759              		.thumb
ARM GAS  /tmp/ccRlcmy8.s 			page 18


 760              		.thumb_func
 761              		.fpu fpv4-sp-d16
 763              	_read:
 764              	.LFB37:
 249:Device_Startup/_syscalls.c **** 
 250:Device_Startup/_syscalls.c **** int __attribute__((weak))
 251:Device_Startup/_syscalls.c **** _read(int file __attribute__((unused)), char* ptr __attribute__((unused)),
 252:Device_Startup/_syscalls.c ****       int len __attribute__((unused)))
 253:Device_Startup/_syscalls.c **** {
 765              		.loc 1 253 1
 766              		.cfi_startproc
 767              		@ args = 0, pretend = 0, frame = 16
 768              		@ frame_needed = 1, uses_anonymous_args = 0
 769 0000 80B5     		push	{r7, lr}
 770              	.LCFI70:
 771              		.cfi_def_cfa_offset 8
 772              		.cfi_offset 7, -8
 773              		.cfi_offset 14, -4
 774 0002 84B0     		sub	sp, sp, #16
 775              	.LCFI71:
 776              		.cfi_def_cfa_offset 24
 777 0004 00AF     		add	r7, sp, #0
 778              	.LCFI72:
 779              		.cfi_def_cfa_register 7
 780 0006 F860     		str	r0, [r7, #12]
 781 0008 B960     		str	r1, [r7, #8]
 782 000a 7A60     		str	r2, [r7, #4]
 254:Device_Startup/_syscalls.c ****     errno = ENOSYS;
 783              		.loc 1 254 5
 784 000c FFF7FEFF 		bl	__errno
 785 0010 0346     		mov	r3, r0
 786              		.loc 1 254 11
 787 0012 5822     		movs	r2, #88
 788 0014 1A60     		str	r2, [r3]
 255:Device_Startup/_syscalls.c ****     return -1;
 789              		.loc 1 255 12
 790 0016 4FF0FF33 		mov	r3, #-1
 256:Device_Startup/_syscalls.c **** }
 791              		.loc 1 256 1
 792 001a 1846     		mov	r0, r3
 793 001c 1037     		adds	r7, r7, #16
 794              	.LCFI73:
 795              		.cfi_def_cfa_offset 8
 796 001e BD46     		mov	sp, r7
 797              	.LCFI74:
 798              		.cfi_def_cfa_register 13
 799              		@ sp needed
 800 0020 80BD     		pop	{r7, pc}
 801              		.cfi_endproc
 802              	.LFE37:
 804              		.section	.text._readlink,"ax",%progbits
 805              		.align	1
 806              		.weak	_readlink
 807              		.syntax unified
 808              		.thumb
 809              		.thumb_func
 810              		.fpu fpv4-sp-d16
ARM GAS  /tmp/ccRlcmy8.s 			page 19


 812              	_readlink:
 813              	.LFB38:
 257:Device_Startup/_syscalls.c **** 
 258:Device_Startup/_syscalls.c **** int __attribute__((weak))
 259:Device_Startup/_syscalls.c **** _readlink(const char* path __attribute__((unused)),
 260:Device_Startup/_syscalls.c ****           char* buf __attribute__((unused)), size_t bufsize __attribute__((unused)))
 261:Device_Startup/_syscalls.c **** {
 814              		.loc 1 261 1
 815              		.cfi_startproc
 816              		@ args = 0, pretend = 0, frame = 16
 817              		@ frame_needed = 1, uses_anonymous_args = 0
 818 0000 80B5     		push	{r7, lr}
 819              	.LCFI75:
 820              		.cfi_def_cfa_offset 8
 821              		.cfi_offset 7, -8
 822              		.cfi_offset 14, -4
 823 0002 84B0     		sub	sp, sp, #16
 824              	.LCFI76:
 825              		.cfi_def_cfa_offset 24
 826 0004 00AF     		add	r7, sp, #0
 827              	.LCFI77:
 828              		.cfi_def_cfa_register 7
 829 0006 F860     		str	r0, [r7, #12]
 830 0008 B960     		str	r1, [r7, #8]
 831 000a 7A60     		str	r2, [r7, #4]
 262:Device_Startup/_syscalls.c ****     errno = ENOSYS;
 832              		.loc 1 262 5
 833 000c FFF7FEFF 		bl	__errno
 834 0010 0346     		mov	r3, r0
 835              		.loc 1 262 11
 836 0012 5822     		movs	r2, #88
 837 0014 1A60     		str	r2, [r3]
 263:Device_Startup/_syscalls.c ****     return -1;
 838              		.loc 1 263 12
 839 0016 4FF0FF33 		mov	r3, #-1
 264:Device_Startup/_syscalls.c **** }
 840              		.loc 1 264 1
 841 001a 1846     		mov	r0, r3
 842 001c 1037     		adds	r7, r7, #16
 843              	.LCFI78:
 844              		.cfi_def_cfa_offset 8
 845 001e BD46     		mov	sp, r7
 846              	.LCFI79:
 847              		.cfi_def_cfa_register 13
 848              		@ sp needed
 849 0020 80BD     		pop	{r7, pc}
 850              		.cfi_endproc
 851              	.LFE38:
 853              		.section	.text._stat,"ax",%progbits
 854              		.align	1
 855              		.weak	_stat
 856              		.syntax unified
 857              		.thumb
 858              		.thumb_func
 859              		.fpu fpv4-sp-d16
 861              	_stat:
 862              	.LFB39:
ARM GAS  /tmp/ccRlcmy8.s 			page 20


 265:Device_Startup/_syscalls.c **** 
 266:Device_Startup/_syscalls.c **** int __attribute__((weak))
 267:Device_Startup/_syscalls.c **** _stat(const char* file __attribute__((unused)),
 268:Device_Startup/_syscalls.c ****       struct stat* st __attribute__((unused)))
 269:Device_Startup/_syscalls.c **** {
 863              		.loc 1 269 1
 864              		.cfi_startproc
 865              		@ args = 0, pretend = 0, frame = 8
 866              		@ frame_needed = 1, uses_anonymous_args = 0
 867 0000 80B5     		push	{r7, lr}
 868              	.LCFI80:
 869              		.cfi_def_cfa_offset 8
 870              		.cfi_offset 7, -8
 871              		.cfi_offset 14, -4
 872 0002 82B0     		sub	sp, sp, #8
 873              	.LCFI81:
 874              		.cfi_def_cfa_offset 16
 875 0004 00AF     		add	r7, sp, #0
 876              	.LCFI82:
 877              		.cfi_def_cfa_register 7
 878 0006 7860     		str	r0, [r7, #4]
 879 0008 3960     		str	r1, [r7]
 270:Device_Startup/_syscalls.c ****     errno = ENOSYS;
 880              		.loc 1 270 5
 881 000a FFF7FEFF 		bl	__errno
 882 000e 0346     		mov	r3, r0
 883              		.loc 1 270 11
 884 0010 5822     		movs	r2, #88
 885 0012 1A60     		str	r2, [r3]
 271:Device_Startup/_syscalls.c ****     return -1;
 886              		.loc 1 271 12
 887 0014 4FF0FF33 		mov	r3, #-1
 272:Device_Startup/_syscalls.c **** }
 888              		.loc 1 272 1
 889 0018 1846     		mov	r0, r3
 890 001a 0837     		adds	r7, r7, #8
 891              	.LCFI83:
 892              		.cfi_def_cfa_offset 8
 893 001c BD46     		mov	sp, r7
 894              	.LCFI84:
 895              		.cfi_def_cfa_register 13
 896              		@ sp needed
 897 001e 80BD     		pop	{r7, pc}
 898              		.cfi_endproc
 899              	.LFE39:
 901              		.section	.text._symlink,"ax",%progbits
 902              		.align	1
 903              		.weak	_symlink
 904              		.syntax unified
 905              		.thumb
 906              		.thumb_func
 907              		.fpu fpv4-sp-d16
 909              	_symlink:
 910              	.LFB40:
 273:Device_Startup/_syscalls.c **** 
 274:Device_Startup/_syscalls.c **** int __attribute__((weak))
 275:Device_Startup/_syscalls.c **** _symlink(const char* path1 __attribute__((unused)),
ARM GAS  /tmp/ccRlcmy8.s 			page 21


 276:Device_Startup/_syscalls.c ****          const char* path2 __attribute__((unused)))
 277:Device_Startup/_syscalls.c **** {
 911              		.loc 1 277 1
 912              		.cfi_startproc
 913              		@ args = 0, pretend = 0, frame = 8
 914              		@ frame_needed = 1, uses_anonymous_args = 0
 915 0000 80B5     		push	{r7, lr}
 916              	.LCFI85:
 917              		.cfi_def_cfa_offset 8
 918              		.cfi_offset 7, -8
 919              		.cfi_offset 14, -4
 920 0002 82B0     		sub	sp, sp, #8
 921              	.LCFI86:
 922              		.cfi_def_cfa_offset 16
 923 0004 00AF     		add	r7, sp, #0
 924              	.LCFI87:
 925              		.cfi_def_cfa_register 7
 926 0006 7860     		str	r0, [r7, #4]
 927 0008 3960     		str	r1, [r7]
 278:Device_Startup/_syscalls.c ****     errno = ENOSYS;
 928              		.loc 1 278 5
 929 000a FFF7FEFF 		bl	__errno
 930 000e 0346     		mov	r3, r0
 931              		.loc 1 278 11
 932 0010 5822     		movs	r2, #88
 933 0012 1A60     		str	r2, [r3]
 279:Device_Startup/_syscalls.c ****     return -1;
 934              		.loc 1 279 12
 935 0014 4FF0FF33 		mov	r3, #-1
 280:Device_Startup/_syscalls.c **** }
 936              		.loc 1 280 1
 937 0018 1846     		mov	r0, r3
 938 001a 0837     		adds	r7, r7, #8
 939              	.LCFI88:
 940              		.cfi_def_cfa_offset 8
 941 001c BD46     		mov	sp, r7
 942              	.LCFI89:
 943              		.cfi_def_cfa_register 13
 944              		@ sp needed
 945 001e 80BD     		pop	{r7, pc}
 946              		.cfi_endproc
 947              	.LFE40:
 949              		.section	.text._times,"ax",%progbits
 950              		.align	1
 951              		.weak	_times
 952              		.syntax unified
 953              		.thumb
 954              		.thumb_func
 955              		.fpu fpv4-sp-d16
 957              	_times:
 958              	.LFB41:
 281:Device_Startup/_syscalls.c **** 
 282:Device_Startup/_syscalls.c **** clock_t __attribute__((weak))
 283:Device_Startup/_syscalls.c **** _times(struct tms* buf __attribute__((unused)))
 284:Device_Startup/_syscalls.c **** {
 959              		.loc 1 284 1
 960              		.cfi_startproc
ARM GAS  /tmp/ccRlcmy8.s 			page 22


 961              		@ args = 0, pretend = 0, frame = 8
 962              		@ frame_needed = 1, uses_anonymous_args = 0
 963 0000 80B5     		push	{r7, lr}
 964              	.LCFI90:
 965              		.cfi_def_cfa_offset 8
 966              		.cfi_offset 7, -8
 967              		.cfi_offset 14, -4
 968 0002 82B0     		sub	sp, sp, #8
 969              	.LCFI91:
 970              		.cfi_def_cfa_offset 16
 971 0004 00AF     		add	r7, sp, #0
 972              	.LCFI92:
 973              		.cfi_def_cfa_register 7
 974 0006 7860     		str	r0, [r7, #4]
 285:Device_Startup/_syscalls.c ****     errno = ENOSYS;
 975              		.loc 1 285 5
 976 0008 FFF7FEFF 		bl	__errno
 977 000c 0346     		mov	r3, r0
 978              		.loc 1 285 11
 979 000e 5822     		movs	r2, #88
 980 0010 1A60     		str	r2, [r3]
 286:Device_Startup/_syscalls.c ****     return ((clock_t) -1);
 981              		.loc 1 286 12
 982 0012 4FF0FF33 		mov	r3, #-1
 287:Device_Startup/_syscalls.c **** }
 983              		.loc 1 287 1
 984 0016 1846     		mov	r0, r3
 985 0018 0837     		adds	r7, r7, #8
 986              	.LCFI93:
 987              		.cfi_def_cfa_offset 8
 988 001a BD46     		mov	sp, r7
 989              	.LCFI94:
 990              		.cfi_def_cfa_register 13
 991              		@ sp needed
 992 001c 80BD     		pop	{r7, pc}
 993              		.cfi_endproc
 994              	.LFE41:
 996              		.section	.text._unlink,"ax",%progbits
 997              		.align	1
 998              		.weak	_unlink
 999              		.syntax unified
 1000              		.thumb
 1001              		.thumb_func
 1002              		.fpu fpv4-sp-d16
 1004              	_unlink:
 1005              	.LFB42:
 288:Device_Startup/_syscalls.c **** 
 289:Device_Startup/_syscalls.c **** int __attribute__((weak))
 290:Device_Startup/_syscalls.c **** _unlink(char* name __attribute__((unused)))
 291:Device_Startup/_syscalls.c **** {
 1006              		.loc 1 291 1
 1007              		.cfi_startproc
 1008              		@ args = 0, pretend = 0, frame = 8
 1009              		@ frame_needed = 1, uses_anonymous_args = 0
 1010 0000 80B5     		push	{r7, lr}
 1011              	.LCFI95:
 1012              		.cfi_def_cfa_offset 8
ARM GAS  /tmp/ccRlcmy8.s 			page 23


 1013              		.cfi_offset 7, -8
 1014              		.cfi_offset 14, -4
 1015 0002 82B0     		sub	sp, sp, #8
 1016              	.LCFI96:
 1017              		.cfi_def_cfa_offset 16
 1018 0004 00AF     		add	r7, sp, #0
 1019              	.LCFI97:
 1020              		.cfi_def_cfa_register 7
 1021 0006 7860     		str	r0, [r7, #4]
 292:Device_Startup/_syscalls.c ****     errno = ENOSYS;
 1022              		.loc 1 292 5
 1023 0008 FFF7FEFF 		bl	__errno
 1024 000c 0346     		mov	r3, r0
 1025              		.loc 1 292 11
 1026 000e 5822     		movs	r2, #88
 1027 0010 1A60     		str	r2, [r3]
 293:Device_Startup/_syscalls.c ****     return -1;
 1028              		.loc 1 293 12
 1029 0012 4FF0FF33 		mov	r3, #-1
 294:Device_Startup/_syscalls.c **** }
 1030              		.loc 1 294 1
 1031 0016 1846     		mov	r0, r3
 1032 0018 0837     		adds	r7, r7, #8
 1033              	.LCFI98:
 1034              		.cfi_def_cfa_offset 8
 1035 001a BD46     		mov	sp, r7
 1036              	.LCFI99:
 1037              		.cfi_def_cfa_register 13
 1038              		@ sp needed
 1039 001c 80BD     		pop	{r7, pc}
 1040              		.cfi_endproc
 1041              	.LFE42:
 1043              		.section	.text._wait,"ax",%progbits
 1044              		.align	1
 1045              		.weak	_wait
 1046              		.syntax unified
 1047              		.thumb
 1048              		.thumb_func
 1049              		.fpu fpv4-sp-d16
 1051              	_wait:
 1052              	.LFB43:
 295:Device_Startup/_syscalls.c **** 
 296:Device_Startup/_syscalls.c **** int __attribute__((weak))
 297:Device_Startup/_syscalls.c **** _wait(int* status __attribute__((unused)))
 298:Device_Startup/_syscalls.c **** {
 1053              		.loc 1 298 1
 1054              		.cfi_startproc
 1055              		@ args = 0, pretend = 0, frame = 8
 1056              		@ frame_needed = 1, uses_anonymous_args = 0
 1057 0000 80B5     		push	{r7, lr}
 1058              	.LCFI100:
 1059              		.cfi_def_cfa_offset 8
 1060              		.cfi_offset 7, -8
 1061              		.cfi_offset 14, -4
 1062 0002 82B0     		sub	sp, sp, #8
 1063              	.LCFI101:
 1064              		.cfi_def_cfa_offset 16
ARM GAS  /tmp/ccRlcmy8.s 			page 24


 1065 0004 00AF     		add	r7, sp, #0
 1066              	.LCFI102:
 1067              		.cfi_def_cfa_register 7
 1068 0006 7860     		str	r0, [r7, #4]
 299:Device_Startup/_syscalls.c ****     errno = ENOSYS;
 1069              		.loc 1 299 5
 1070 0008 FFF7FEFF 		bl	__errno
 1071 000c 0346     		mov	r3, r0
 1072              		.loc 1 299 11
 1073 000e 5822     		movs	r2, #88
 1074 0010 1A60     		str	r2, [r3]
 300:Device_Startup/_syscalls.c ****     return -1;
 1075              		.loc 1 300 12
 1076 0012 4FF0FF33 		mov	r3, #-1
 301:Device_Startup/_syscalls.c **** }
 1077              		.loc 1 301 1
 1078 0016 1846     		mov	r0, r3
 1079 0018 0837     		adds	r7, r7, #8
 1080              	.LCFI103:
 1081              		.cfi_def_cfa_offset 8
 1082 001a BD46     		mov	sp, r7
 1083              	.LCFI104:
 1084              		.cfi_def_cfa_register 13
 1085              		@ sp needed
 1086 001c 80BD     		pop	{r7, pc}
 1087              		.cfi_endproc
 1088              	.LFE43:
 1090              		.section	.text._write,"ax",%progbits
 1091              		.align	1
 1092              		.weak	_write
 1093              		.syntax unified
 1094              		.thumb
 1095              		.thumb_func
 1096              		.fpu fpv4-sp-d16
 1098              	_write:
 1099              	.LFB44:
 302:Device_Startup/_syscalls.c **** 
 303:Device_Startup/_syscalls.c **** int __attribute__((weak))
 304:Device_Startup/_syscalls.c **** _write(int file __attribute__((unused)), char* ptr __attribute__((unused)),
 305:Device_Startup/_syscalls.c ****        int len __attribute__((unused)))
 306:Device_Startup/_syscalls.c **** {
 1100              		.loc 1 306 1
 1101              		.cfi_startproc
 1102              		@ args = 0, pretend = 0, frame = 16
 1103              		@ frame_needed = 1, uses_anonymous_args = 0
 1104 0000 80B5     		push	{r7, lr}
 1105              	.LCFI105:
 1106              		.cfi_def_cfa_offset 8
 1107              		.cfi_offset 7, -8
 1108              		.cfi_offset 14, -4
 1109 0002 84B0     		sub	sp, sp, #16
 1110              	.LCFI106:
 1111              		.cfi_def_cfa_offset 24
 1112 0004 00AF     		add	r7, sp, #0
 1113              	.LCFI107:
 1114              		.cfi_def_cfa_register 7
 1115 0006 F860     		str	r0, [r7, #12]
ARM GAS  /tmp/ccRlcmy8.s 			page 25


 1116 0008 B960     		str	r1, [r7, #8]
 1117 000a 7A60     		str	r2, [r7, #4]
 307:Device_Startup/_syscalls.c ****     errno = ENOSYS;
 1118              		.loc 1 307 5
 1119 000c FFF7FEFF 		bl	__errno
 1120 0010 0346     		mov	r3, r0
 1121              		.loc 1 307 11
 1122 0012 5822     		movs	r2, #88
 1123 0014 1A60     		str	r2, [r3]
 308:Device_Startup/_syscalls.c ****     return -1;
 1124              		.loc 1 308 12
 1125 0016 4FF0FF33 		mov	r3, #-1
 309:Device_Startup/_syscalls.c **** }
 1126              		.loc 1 309 1
 1127 001a 1846     		mov	r0, r3
 1128 001c 1037     		adds	r7, r7, #16
 1129              	.LCFI108:
 1130              		.cfi_def_cfa_offset 8
 1131 001e BD46     		mov	sp, r7
 1132              	.LCFI109:
 1133              		.cfi_def_cfa_register 13
 1134              		@ sp needed
 1135 0020 80BD     		pop	{r7, pc}
 1136              		.cfi_endproc
 1137              	.LFE44:
 1139              		.section	.data.argv.1,"aw"
 1140              		.align	2
 1143              	argv.1:
 1144 0000 00000000 		.word	name.0
 1145 0004 00000000 		.word	0
 1146              		.section	.bss.name.0,"aw",%nobits
 1147              		.align	2
 1150              	name.0:
 1151 0000 00       		.space	1
 1152              		.text
 1153              	.Letext0:
 1154              		.file 2 "/usr/lib/gcc/arm-none-eabi/10.3.1/include/stddef.h"
 1155              		.file 3 "/usr/include/newlib/machine/_default_types.h"
 1156              		.file 4 "/usr/include/newlib/sys/_types.h"
 1157              		.file 5 "/usr/include/newlib/sys/_timeval.h"
 1158              		.file 6 "/usr/include/newlib/sys/_timespec.h"
 1159              		.file 7 "/usr/include/newlib/sys/types.h"
 1160              		.file 8 "/usr/include/newlib/sys/stat.h"
 1161              		.file 9 "/usr/include/newlib/sys/times.h"
 1162              		.file 10 "/usr/include/newlib/sys/signal.h"
 1163              		.file 11 "/usr/include/newlib/signal.h"
ARM GAS  /tmp/ccRlcmy8.s 			page 26

