ARM GAS  /tmp/ccavsG2p.s 			page 1


   1              		.cpu cortex-m4
   2              		.eabi_attribute 27, 1
   3              		.eabi_attribute 28, 1
   4              		.eabi_attribute 20, 1
   5              		.eabi_attribute 21, 1
   6              		.eabi_attribute 23, 3
   7              		.eabi_attribute 24, 1
   8              		.eabi_attribute 25, 1
   9              		.eabi_attribute 26, 1
  10              		.eabi_attribute 30, 6
  11              		.eabi_attribute 34, 1
  12              		.eabi_attribute 18, 4
  13              		.file	"sys.c"
  14              		.text
  15              	.Ltext0:
  16              		.cfi_sections	.debug_frame
  17              		.section	.text.SYS_ClearResetSrc,"ax",%progbits
  18              		.align	1
  19              		.global	SYS_ClearResetSrc
  20              		.arch armv7e-m
  21              		.syntax unified
  22              		.thumb
  23              		.thumb_func
  24              		.fpu fpv4-sp-d16
  26              	SYS_ClearResetSrc:
  27              	.LFB195:
  28              		.file 1 "Drivers/Library/StdDriver/src/sys.c"
   1:Drivers/Library/StdDriver/src/sys.c **** /**************************************************************************//**
   2:Drivers/Library/StdDriver/src/sys.c ****  * @file     sys.c
   3:Drivers/Library/StdDriver/src/sys.c ****  * @version  V1.00
   4:Drivers/Library/StdDriver/src/sys.c ****  * @brief    M480 series SYS driver source file
   5:Drivers/Library/StdDriver/src/sys.c ****  *
   6:Drivers/Library/StdDriver/src/sys.c ****  * SPDX-License-Identifier: Apache-2.0
   7:Drivers/Library/StdDriver/src/sys.c ****  * @copyright (C) 2016-2020 Nuvoton Technology Corp. All rights reserved.
   8:Drivers/Library/StdDriver/src/sys.c **** *****************************************************************************/
   9:Drivers/Library/StdDriver/src/sys.c **** 
  10:Drivers/Library/StdDriver/src/sys.c **** #include "NuMicro.h"
  11:Drivers/Library/StdDriver/src/sys.c **** 
  12:Drivers/Library/StdDriver/src/sys.c **** #ifdef __cplusplus
  13:Drivers/Library/StdDriver/src/sys.c **** extern "C"
  14:Drivers/Library/StdDriver/src/sys.c **** {
  15:Drivers/Library/StdDriver/src/sys.c **** #endif
  16:Drivers/Library/StdDriver/src/sys.c **** 
  17:Drivers/Library/StdDriver/src/sys.c **** /** @addtogroup Standard_Driver Standard Driver
  18:Drivers/Library/StdDriver/src/sys.c ****   @{
  19:Drivers/Library/StdDriver/src/sys.c **** */
  20:Drivers/Library/StdDriver/src/sys.c **** 
  21:Drivers/Library/StdDriver/src/sys.c **** /** @addtogroup SYS_Driver SYS Driver
  22:Drivers/Library/StdDriver/src/sys.c ****   @{
  23:Drivers/Library/StdDriver/src/sys.c **** */
  24:Drivers/Library/StdDriver/src/sys.c **** 
  25:Drivers/Library/StdDriver/src/sys.c **** 
  26:Drivers/Library/StdDriver/src/sys.c **** /** @addtogroup SYS_EXPORTED_FUNCTIONS SYS Exported Functions
  27:Drivers/Library/StdDriver/src/sys.c ****   @{
  28:Drivers/Library/StdDriver/src/sys.c **** */
  29:Drivers/Library/StdDriver/src/sys.c **** 
  30:Drivers/Library/StdDriver/src/sys.c **** /**
ARM GAS  /tmp/ccavsG2p.s 			page 2


  31:Drivers/Library/StdDriver/src/sys.c ****   * @brief      Clear reset source
  32:Drivers/Library/StdDriver/src/sys.c ****   * @param[in]  u32Src is system reset source. Including :
  33:Drivers/Library/StdDriver/src/sys.c ****   *             - \ref SYS_RSTSTS_CPULKRF_Msk
  34:Drivers/Library/StdDriver/src/sys.c ****   *             - \ref SYS_RSTSTS_CPURF_Msk
  35:Drivers/Library/StdDriver/src/sys.c ****   *             - \ref SYS_RSTSTS_SYSRF_Msk
  36:Drivers/Library/StdDriver/src/sys.c ****   *             - \ref SYS_RSTSTS_BODRF_Msk
  37:Drivers/Library/StdDriver/src/sys.c ****   *             - \ref SYS_RSTSTS_LVRF_Msk
  38:Drivers/Library/StdDriver/src/sys.c ****   *             - \ref SYS_RSTSTS_WDTRF_Msk
  39:Drivers/Library/StdDriver/src/sys.c ****   *             - \ref SYS_RSTSTS_PINRF_Msk
  40:Drivers/Library/StdDriver/src/sys.c ****   *             - \ref SYS_RSTSTS_PORF_Msk
  41:Drivers/Library/StdDriver/src/sys.c ****   * @return     None
  42:Drivers/Library/StdDriver/src/sys.c ****   * @details    This function clear the selected system reset source.
  43:Drivers/Library/StdDriver/src/sys.c ****   */
  44:Drivers/Library/StdDriver/src/sys.c **** void SYS_ClearResetSrc(uint32_t u32Src)
  45:Drivers/Library/StdDriver/src/sys.c **** {
  29              		.loc 1 45 1
  30              		.cfi_startproc
  31              		@ args = 0, pretend = 0, frame = 8
  32              		@ frame_needed = 1, uses_anonymous_args = 0
  33              		@ link register save eliminated.
  34 0000 80B4     		push	{r7}
  35              	.LCFI0:
  36              		.cfi_def_cfa_offset 4
  37              		.cfi_offset 7, -4
  38 0002 83B0     		sub	sp, sp, #12
  39              	.LCFI1:
  40              		.cfi_def_cfa_offset 16
  41 0004 00AF     		add	r7, sp, #0
  42              	.LCFI2:
  43              		.cfi_def_cfa_register 7
  44 0006 7860     		str	r0, [r7, #4]
  46:Drivers/Library/StdDriver/src/sys.c ****     SYS->RSTSTS |= u32Src;
  45              		.loc 1 46 17
  46 0008 4FF08043 		mov	r3, #1073741824
  47 000c 5A68     		ldr	r2, [r3, #4]
  48 000e 4FF08041 		mov	r1, #1073741824
  49 0012 7B68     		ldr	r3, [r7, #4]
  50 0014 1343     		orrs	r3, r3, r2
  51 0016 4B60     		str	r3, [r1, #4]
  47:Drivers/Library/StdDriver/src/sys.c **** }
  52              		.loc 1 47 1
  53 0018 00BF     		nop
  54 001a 0C37     		adds	r7, r7, #12
  55              	.LCFI3:
  56              		.cfi_def_cfa_offset 4
  57 001c BD46     		mov	sp, r7
  58              	.LCFI4:
  59              		.cfi_def_cfa_register 13
  60              		@ sp needed
  61 001e 5DF8047B 		ldr	r7, [sp], #4
  62              	.LCFI5:
  63              		.cfi_restore 7
  64              		.cfi_def_cfa_offset 0
  65 0022 7047     		bx	lr
  66              		.cfi_endproc
  67              	.LFE195:
  69              		.section	.text.SYS_GetBODStatus,"ax",%progbits
ARM GAS  /tmp/ccavsG2p.s 			page 3


  70              		.align	1
  71              		.global	SYS_GetBODStatus
  72              		.syntax unified
  73              		.thumb
  74              		.thumb_func
  75              		.fpu fpv4-sp-d16
  77              	SYS_GetBODStatus:
  78              	.LFB196:
  48:Drivers/Library/StdDriver/src/sys.c **** 
  49:Drivers/Library/StdDriver/src/sys.c **** /**
  50:Drivers/Library/StdDriver/src/sys.c ****   * @brief      Get Brown-out detector output status
  51:Drivers/Library/StdDriver/src/sys.c ****   * @param      None
  52:Drivers/Library/StdDriver/src/sys.c ****   * @retval     0 System voltage is higher than BODVL setting or BODEN is 0.
  53:Drivers/Library/StdDriver/src/sys.c ****   * @retval     1 System voltage is lower than BODVL setting.
  54:Drivers/Library/StdDriver/src/sys.c ****   * @details    This function get Brown-out detector output status.
  55:Drivers/Library/StdDriver/src/sys.c ****   */
  56:Drivers/Library/StdDriver/src/sys.c **** uint32_t SYS_GetBODStatus(void)
  57:Drivers/Library/StdDriver/src/sys.c **** {
  79              		.loc 1 57 1
  80              		.cfi_startproc
  81              		@ args = 0, pretend = 0, frame = 0
  82              		@ frame_needed = 1, uses_anonymous_args = 0
  83              		@ link register save eliminated.
  84 0000 80B4     		push	{r7}
  85              	.LCFI6:
  86              		.cfi_def_cfa_offset 4
  87              		.cfi_offset 7, -4
  88 0002 00AF     		add	r7, sp, #0
  89              	.LCFI7:
  90              		.cfi_def_cfa_register 7
  58:Drivers/Library/StdDriver/src/sys.c ****     return ((SYS->BODCTL & SYS_BODCTL_BODOUT_Msk) >> SYS_BODCTL_BODOUT_Pos);
  91              		.loc 1 58 17
  92 0004 4FF08043 		mov	r3, #1073741824
  93 0008 9B69     		ldr	r3, [r3, #24]
  94              		.loc 1 58 51
  95 000a 9B09     		lsrs	r3, r3, #6
  96 000c 03F00103 		and	r3, r3, #1
  59:Drivers/Library/StdDriver/src/sys.c **** }
  97              		.loc 1 59 1
  98 0010 1846     		mov	r0, r3
  99 0012 BD46     		mov	sp, r7
 100              	.LCFI8:
 101              		.cfi_def_cfa_register 13
 102              		@ sp needed
 103 0014 5DF8047B 		ldr	r7, [sp], #4
 104              	.LCFI9:
 105              		.cfi_restore 7
 106              		.cfi_def_cfa_offset 0
 107 0018 7047     		bx	lr
 108              		.cfi_endproc
 109              	.LFE196:
 111              		.section	.text.SYS_GetResetSrc,"ax",%progbits
 112              		.align	1
 113              		.global	SYS_GetResetSrc
 114              		.syntax unified
 115              		.thumb
 116              		.thumb_func
ARM GAS  /tmp/ccavsG2p.s 			page 4


 117              		.fpu fpv4-sp-d16
 119              	SYS_GetResetSrc:
 120              	.LFB197:
  60:Drivers/Library/StdDriver/src/sys.c **** 
  61:Drivers/Library/StdDriver/src/sys.c **** /**
  62:Drivers/Library/StdDriver/src/sys.c ****   * @brief      Get reset status register value
  63:Drivers/Library/StdDriver/src/sys.c ****   * @param      None
  64:Drivers/Library/StdDriver/src/sys.c ****   * @return     Reset source
  65:Drivers/Library/StdDriver/src/sys.c ****   * @details    This function get the system reset status register value.
  66:Drivers/Library/StdDriver/src/sys.c ****   */
  67:Drivers/Library/StdDriver/src/sys.c **** uint32_t SYS_GetResetSrc(void)
  68:Drivers/Library/StdDriver/src/sys.c **** {
 121              		.loc 1 68 1
 122              		.cfi_startproc
 123              		@ args = 0, pretend = 0, frame = 0
 124              		@ frame_needed = 1, uses_anonymous_args = 0
 125              		@ link register save eliminated.
 126 0000 80B4     		push	{r7}
 127              	.LCFI10:
 128              		.cfi_def_cfa_offset 4
 129              		.cfi_offset 7, -4
 130 0002 00AF     		add	r7, sp, #0
 131              	.LCFI11:
 132              		.cfi_def_cfa_register 7
  69:Drivers/Library/StdDriver/src/sys.c ****     return (SYS->RSTSTS);
 133              		.loc 1 69 16
 134 0004 4FF08043 		mov	r3, #1073741824
 135 0008 5B68     		ldr	r3, [r3, #4]
  70:Drivers/Library/StdDriver/src/sys.c **** }
 136              		.loc 1 70 1
 137 000a 1846     		mov	r0, r3
 138 000c BD46     		mov	sp, r7
 139              	.LCFI12:
 140              		.cfi_def_cfa_register 13
 141              		@ sp needed
 142 000e 5DF8047B 		ldr	r7, [sp], #4
 143              	.LCFI13:
 144              		.cfi_restore 7
 145              		.cfi_def_cfa_offset 0
 146 0012 7047     		bx	lr
 147              		.cfi_endproc
 148              	.LFE197:
 150              		.section	.text.SYS_IsRegLocked,"ax",%progbits
 151              		.align	1
 152              		.global	SYS_IsRegLocked
 153              		.syntax unified
 154              		.thumb
 155              		.thumb_func
 156              		.fpu fpv4-sp-d16
 158              	SYS_IsRegLocked:
 159              	.LFB198:
  71:Drivers/Library/StdDriver/src/sys.c **** 
  72:Drivers/Library/StdDriver/src/sys.c **** /**
  73:Drivers/Library/StdDriver/src/sys.c ****   * @brief      Check if register is locked nor not
  74:Drivers/Library/StdDriver/src/sys.c ****   * @param      None
  75:Drivers/Library/StdDriver/src/sys.c ****   * @retval     0 Write-protection function is disabled.
  76:Drivers/Library/StdDriver/src/sys.c ****   *             1 Write-protection function is enabled.
ARM GAS  /tmp/ccavsG2p.s 			page 5


  77:Drivers/Library/StdDriver/src/sys.c ****   * @details    This function check register write-protection bit setting.
  78:Drivers/Library/StdDriver/src/sys.c ****   */
  79:Drivers/Library/StdDriver/src/sys.c **** uint32_t SYS_IsRegLocked(void)
  80:Drivers/Library/StdDriver/src/sys.c **** {
 160              		.loc 1 80 1
 161              		.cfi_startproc
 162              		@ args = 0, pretend = 0, frame = 0
 163              		@ frame_needed = 1, uses_anonymous_args = 0
 164              		@ link register save eliminated.
 165 0000 80B4     		push	{r7}
 166              	.LCFI14:
 167              		.cfi_def_cfa_offset 4
 168              		.cfi_offset 7, -4
 169 0002 00AF     		add	r7, sp, #0
 170              	.LCFI15:
 171              		.cfi_def_cfa_register 7
  81:Drivers/Library/StdDriver/src/sys.c ****     return SYS->REGLCTL & 1UL ? 0UL : 1UL;
 172              		.loc 1 81 15
 173 0004 4FF08043 		mov	r3, #1073741824
 174 0008 D3F80031 		ldr	r3, [r3, #256]
 175              		.loc 1 81 25
 176 000c 03F00103 		and	r3, r3, #1
 177              		.loc 1 81 37
 178 0010 002B     		cmp	r3, #0
 179 0012 0CBF     		ite	eq
 180 0014 0123     		moveq	r3, #1
 181 0016 0023     		movne	r3, #0
 182 0018 DBB2     		uxtb	r3, r3
  82:Drivers/Library/StdDriver/src/sys.c **** }
 183              		.loc 1 82 1
 184 001a 1846     		mov	r0, r3
 185 001c BD46     		mov	sp, r7
 186              	.LCFI16:
 187              		.cfi_def_cfa_register 13
 188              		@ sp needed
 189 001e 5DF8047B 		ldr	r7, [sp], #4
 190              	.LCFI17:
 191              		.cfi_restore 7
 192              		.cfi_def_cfa_offset 0
 193 0022 7047     		bx	lr
 194              		.cfi_endproc
 195              	.LFE198:
 197              		.section	.text.SYS_ReadPDID,"ax",%progbits
 198              		.align	1
 199              		.global	SYS_ReadPDID
 200              		.syntax unified
 201              		.thumb
 202              		.thumb_func
 203              		.fpu fpv4-sp-d16
 205              	SYS_ReadPDID:
 206              	.LFB199:
  83:Drivers/Library/StdDriver/src/sys.c **** 
  84:Drivers/Library/StdDriver/src/sys.c **** /**
  85:Drivers/Library/StdDriver/src/sys.c ****   * @brief      Get product ID
  86:Drivers/Library/StdDriver/src/sys.c ****   * @param      None
  87:Drivers/Library/StdDriver/src/sys.c ****   * @return     Product ID
  88:Drivers/Library/StdDriver/src/sys.c ****   * @details    This function get product ID.
ARM GAS  /tmp/ccavsG2p.s 			page 6


  89:Drivers/Library/StdDriver/src/sys.c ****   */
  90:Drivers/Library/StdDriver/src/sys.c **** uint32_t  SYS_ReadPDID(void)
  91:Drivers/Library/StdDriver/src/sys.c **** {
 207              		.loc 1 91 1
 208              		.cfi_startproc
 209              		@ args = 0, pretend = 0, frame = 0
 210              		@ frame_needed = 1, uses_anonymous_args = 0
 211              		@ link register save eliminated.
 212 0000 80B4     		push	{r7}
 213              	.LCFI18:
 214              		.cfi_def_cfa_offset 4
 215              		.cfi_offset 7, -4
 216 0002 00AF     		add	r7, sp, #0
 217              	.LCFI19:
 218              		.cfi_def_cfa_register 7
  92:Drivers/Library/StdDriver/src/sys.c ****     return SYS->PDID;
 219              		.loc 1 92 15
 220 0004 4FF08043 		mov	r3, #1073741824
 221 0008 1B68     		ldr	r3, [r3]
  93:Drivers/Library/StdDriver/src/sys.c **** }
 222              		.loc 1 93 1
 223 000a 1846     		mov	r0, r3
 224 000c BD46     		mov	sp, r7
 225              	.LCFI20:
 226              		.cfi_def_cfa_register 13
 227              		@ sp needed
 228 000e 5DF8047B 		ldr	r7, [sp], #4
 229              	.LCFI21:
 230              		.cfi_restore 7
 231              		.cfi_def_cfa_offset 0
 232 0012 7047     		bx	lr
 233              		.cfi_endproc
 234              	.LFE199:
 236              		.section	.text.SYS_ResetChip,"ax",%progbits
 237              		.align	1
 238              		.global	SYS_ResetChip
 239              		.syntax unified
 240              		.thumb
 241              		.thumb_func
 242              		.fpu fpv4-sp-d16
 244              	SYS_ResetChip:
 245              	.LFB200:
  94:Drivers/Library/StdDriver/src/sys.c **** 
  95:Drivers/Library/StdDriver/src/sys.c **** /**
  96:Drivers/Library/StdDriver/src/sys.c ****   * @brief      Reset chip with chip reset
  97:Drivers/Library/StdDriver/src/sys.c ****   * @param      None
  98:Drivers/Library/StdDriver/src/sys.c ****   * @return     None
  99:Drivers/Library/StdDriver/src/sys.c ****   * @details    This function reset chip with chip reset.
 100:Drivers/Library/StdDriver/src/sys.c ****   *             The register write-protection function should be disabled before using this functio
 101:Drivers/Library/StdDriver/src/sys.c ****   */
 102:Drivers/Library/StdDriver/src/sys.c **** void SYS_ResetChip(void)
 103:Drivers/Library/StdDriver/src/sys.c **** {
 246              		.loc 1 103 1
 247              		.cfi_startproc
 248              		@ args = 0, pretend = 0, frame = 0
 249              		@ frame_needed = 1, uses_anonymous_args = 0
 250              		@ link register save eliminated.
ARM GAS  /tmp/ccavsG2p.s 			page 7


 251 0000 80B4     		push	{r7}
 252              	.LCFI22:
 253              		.cfi_def_cfa_offset 4
 254              		.cfi_offset 7, -4
 255 0002 00AF     		add	r7, sp, #0
 256              	.LCFI23:
 257              		.cfi_def_cfa_register 7
 104:Drivers/Library/StdDriver/src/sys.c ****     SYS->IPRST0 |= SYS_IPRST0_CHIPRST_Msk;
 258              		.loc 1 104 17
 259 0004 4FF08043 		mov	r3, #1073741824
 260 0008 9B68     		ldr	r3, [r3, #8]
 261 000a 4FF08042 		mov	r2, #1073741824
 262 000e 43F00103 		orr	r3, r3, #1
 263 0012 9360     		str	r3, [r2, #8]
 105:Drivers/Library/StdDriver/src/sys.c **** }
 264              		.loc 1 105 1
 265 0014 00BF     		nop
 266 0016 BD46     		mov	sp, r7
 267              	.LCFI24:
 268              		.cfi_def_cfa_register 13
 269              		@ sp needed
 270 0018 5DF8047B 		ldr	r7, [sp], #4
 271              	.LCFI25:
 272              		.cfi_restore 7
 273              		.cfi_def_cfa_offset 0
 274 001c 7047     		bx	lr
 275              		.cfi_endproc
 276              	.LFE200:
 278              		.section	.text.SYS_ResetCPU,"ax",%progbits
 279              		.align	1
 280              		.global	SYS_ResetCPU
 281              		.syntax unified
 282              		.thumb
 283              		.thumb_func
 284              		.fpu fpv4-sp-d16
 286              	SYS_ResetCPU:
 287              	.LFB201:
 106:Drivers/Library/StdDriver/src/sys.c **** 
 107:Drivers/Library/StdDriver/src/sys.c **** /**
 108:Drivers/Library/StdDriver/src/sys.c ****   * @brief      Reset chip with CPU reset
 109:Drivers/Library/StdDriver/src/sys.c ****   * @param      None
 110:Drivers/Library/StdDriver/src/sys.c ****   * @return     None
 111:Drivers/Library/StdDriver/src/sys.c ****   * @details    This function reset CPU with CPU reset.
 112:Drivers/Library/StdDriver/src/sys.c ****   *             The register write-protection function should be disabled before using this functio
 113:Drivers/Library/StdDriver/src/sys.c ****   */
 114:Drivers/Library/StdDriver/src/sys.c **** void SYS_ResetCPU(void)
 115:Drivers/Library/StdDriver/src/sys.c **** {
 288              		.loc 1 115 1
 289              		.cfi_startproc
 290              		@ args = 0, pretend = 0, frame = 0
 291              		@ frame_needed = 1, uses_anonymous_args = 0
 292              		@ link register save eliminated.
 293 0000 80B4     		push	{r7}
 294              	.LCFI26:
 295              		.cfi_def_cfa_offset 4
 296              		.cfi_offset 7, -4
 297 0002 00AF     		add	r7, sp, #0
ARM GAS  /tmp/ccavsG2p.s 			page 8


 298              	.LCFI27:
 299              		.cfi_def_cfa_register 7
 116:Drivers/Library/StdDriver/src/sys.c ****     SYS->IPRST0 |= SYS_IPRST0_CPURST_Msk;
 300              		.loc 1 116 17
 301 0004 4FF08043 		mov	r3, #1073741824
 302 0008 9B68     		ldr	r3, [r3, #8]
 303 000a 4FF08042 		mov	r2, #1073741824
 304 000e 43F00203 		orr	r3, r3, #2
 305 0012 9360     		str	r3, [r2, #8]
 117:Drivers/Library/StdDriver/src/sys.c **** }
 306              		.loc 1 117 1
 307 0014 00BF     		nop
 308 0016 BD46     		mov	sp, r7
 309              	.LCFI28:
 310              		.cfi_def_cfa_register 13
 311              		@ sp needed
 312 0018 5DF8047B 		ldr	r7, [sp], #4
 313              	.LCFI29:
 314              		.cfi_restore 7
 315              		.cfi_def_cfa_offset 0
 316 001c 7047     		bx	lr
 317              		.cfi_endproc
 318              	.LFE201:
 320              		.section	.text.SYS_ResetModule,"ax",%progbits
 321              		.align	1
 322              		.global	SYS_ResetModule
 323              		.syntax unified
 324              		.thumb
 325              		.thumb_func
 326              		.fpu fpv4-sp-d16
 328              	SYS_ResetModule:
 329              	.LFB202:
 118:Drivers/Library/StdDriver/src/sys.c **** 
 119:Drivers/Library/StdDriver/src/sys.c **** /**
 120:Drivers/Library/StdDriver/src/sys.c ****   * @brief      Reset selected module
 121:Drivers/Library/StdDriver/src/sys.c ****   * @param[in]  u32ModuleIndex is module index. Including :
 122:Drivers/Library/StdDriver/src/sys.c ****   *             - \ref PDMA_RST
 123:Drivers/Library/StdDriver/src/sys.c ****   *             - \ref EBI_RST
 124:Drivers/Library/StdDriver/src/sys.c ****   *             - \ref EMAC_RST
 125:Drivers/Library/StdDriver/src/sys.c ****   *             - \ref SDH0_RST
 126:Drivers/Library/StdDriver/src/sys.c ****   *             - \ref CRC_RST
 127:Drivers/Library/StdDriver/src/sys.c ****   *             - \ref CCAP_RST
 128:Drivers/Library/StdDriver/src/sys.c ****   *             - \ref HSUSBD_RST
 129:Drivers/Library/StdDriver/src/sys.c ****   *             - \ref CRPT_RST
 130:Drivers/Library/StdDriver/src/sys.c ****   *             - \ref SPIM_RST
 131:Drivers/Library/StdDriver/src/sys.c ****   *             - \ref USBH_RST
 132:Drivers/Library/StdDriver/src/sys.c ****   *             - \ref SDH1_RST
 133:Drivers/Library/StdDriver/src/sys.c ****   *             - \ref GPIO_RST
 134:Drivers/Library/StdDriver/src/sys.c ****   *             - \ref TMR0_RST
 135:Drivers/Library/StdDriver/src/sys.c ****   *             - \ref TMR1_RST
 136:Drivers/Library/StdDriver/src/sys.c ****   *             - \ref TMR2_RST
 137:Drivers/Library/StdDriver/src/sys.c ****   *             - \ref TMR3_RST
 138:Drivers/Library/StdDriver/src/sys.c ****   *             - \ref ACMP01_RST
 139:Drivers/Library/StdDriver/src/sys.c ****   *             - \ref I2C0_RST
 140:Drivers/Library/StdDriver/src/sys.c ****   *             - \ref I2C1_RST
 141:Drivers/Library/StdDriver/src/sys.c ****   *             - \ref I2C2_RST
 142:Drivers/Library/StdDriver/src/sys.c ****   *             - \ref QSPI0_RST
ARM GAS  /tmp/ccavsG2p.s 			page 9


 143:Drivers/Library/StdDriver/src/sys.c ****   *             - \ref SPI0_RST
 144:Drivers/Library/StdDriver/src/sys.c ****   *             - \ref SPI1_RST
 145:Drivers/Library/StdDriver/src/sys.c ****   *             - \ref SPI2_RST
 146:Drivers/Library/StdDriver/src/sys.c ****   *             - \ref UART0_RST
 147:Drivers/Library/StdDriver/src/sys.c ****   *             - \ref UART1_RST
 148:Drivers/Library/StdDriver/src/sys.c ****   *             - \ref UART2_RST
 149:Drivers/Library/StdDriver/src/sys.c ****   *             - \ref UART3_RST
 150:Drivers/Library/StdDriver/src/sys.c ****   *             - \ref UART4_RST
 151:Drivers/Library/StdDriver/src/sys.c ****   *             - \ref UART5_RST
 152:Drivers/Library/StdDriver/src/sys.c ****   *             - \ref UART6_RST
 153:Drivers/Library/StdDriver/src/sys.c ****   *             - \ref UART7_RST
 154:Drivers/Library/StdDriver/src/sys.c ****   *             - \ref CAN0_RST
 155:Drivers/Library/StdDriver/src/sys.c ****   *             - \ref CAN1_RST
 156:Drivers/Library/StdDriver/src/sys.c ****   *             - \ref OTG_RST
 157:Drivers/Library/StdDriver/src/sys.c ****   *             - \ref USBD_RST
 158:Drivers/Library/StdDriver/src/sys.c ****   *             - \ref EADC_RST
 159:Drivers/Library/StdDriver/src/sys.c ****   *             - \ref I2S0_RST
 160:Drivers/Library/StdDriver/src/sys.c ****   *             - \ref HSOTG_RST
 161:Drivers/Library/StdDriver/src/sys.c ****   *             - \ref TRNG_RST
 162:Drivers/Library/StdDriver/src/sys.c ****   *             - \ref SC0_RST
 163:Drivers/Library/StdDriver/src/sys.c ****   *             - \ref SC1_RST
 164:Drivers/Library/StdDriver/src/sys.c ****   *             - \ref SC2_RST
 165:Drivers/Library/StdDriver/src/sys.c ****   *             - \ref QSPI1_RST
 166:Drivers/Library/StdDriver/src/sys.c ****   *             - \ref SPI3_RST
 167:Drivers/Library/StdDriver/src/sys.c ****   *             - \ref USCI0_RST
 168:Drivers/Library/StdDriver/src/sys.c ****   *             - \ref USCI1_RST
 169:Drivers/Library/StdDriver/src/sys.c ****   *             - \ref DAC_RST
 170:Drivers/Library/StdDriver/src/sys.c ****   *             - \ref EPWM0_RST
 171:Drivers/Library/StdDriver/src/sys.c ****   *             - \ref EPWM1_RST
 172:Drivers/Library/StdDriver/src/sys.c ****   *             - \ref BPWM0_RST
 173:Drivers/Library/StdDriver/src/sys.c ****   *             - \ref BPWM1_RST
 174:Drivers/Library/StdDriver/src/sys.c ****   *             - \ref QEI0_RST
 175:Drivers/Library/StdDriver/src/sys.c ****   *             - \ref QEI1_RST
 176:Drivers/Library/StdDriver/src/sys.c ****   *             - \ref ECAP0_RST
 177:Drivers/Library/StdDriver/src/sys.c ****   *             - \ref ECAP1_RST
 178:Drivers/Library/StdDriver/src/sys.c ****   *             - \ref CAN2_RST
 179:Drivers/Library/StdDriver/src/sys.c ****   *             - \ref OPA_RST
 180:Drivers/Library/StdDriver/src/sys.c ****   *             - \ref EADC1_RST
 181:Drivers/Library/StdDriver/src/sys.c ****   * @return     None
 182:Drivers/Library/StdDriver/src/sys.c ****   * @details    This function reset selected module.
 183:Drivers/Library/StdDriver/src/sys.c ****   */
 184:Drivers/Library/StdDriver/src/sys.c **** void SYS_ResetModule(uint32_t u32ModuleIndex)
 185:Drivers/Library/StdDriver/src/sys.c **** {
 330              		.loc 1 185 1
 331              		.cfi_startproc
 332              		@ args = 0, pretend = 0, frame = 16
 333              		@ frame_needed = 1, uses_anonymous_args = 0
 334              		@ link register save eliminated.
 335 0000 80B4     		push	{r7}
 336              	.LCFI30:
 337              		.cfi_def_cfa_offset 4
 338              		.cfi_offset 7, -4
 339 0002 85B0     		sub	sp, sp, #20
 340              	.LCFI31:
 341              		.cfi_def_cfa_offset 24
 342 0004 00AF     		add	r7, sp, #0
 343              	.LCFI32:
ARM GAS  /tmp/ccavsG2p.s 			page 10


 344              		.cfi_def_cfa_register 7
 345 0006 7860     		str	r0, [r7, #4]
 186:Drivers/Library/StdDriver/src/sys.c ****     uint32_t u32tmpVal = 0UL, u32tmpAddr = 0UL;
 346              		.loc 1 186 14
 347 0008 0023     		movs	r3, #0
 348 000a FB60     		str	r3, [r7, #12]
 349              		.loc 1 186 31
 350 000c 0023     		movs	r3, #0
 351 000e BB60     		str	r3, [r7, #8]
 187:Drivers/Library/StdDriver/src/sys.c **** 
 188:Drivers/Library/StdDriver/src/sys.c ****     /* Generate reset signal to the corresponding module */
 189:Drivers/Library/StdDriver/src/sys.c ****     u32tmpVal = (1UL << (u32ModuleIndex & 0x00ffffffUL));
 352              		.loc 1 189 41
 353 0010 7B68     		ldr	r3, [r7, #4]
 354 0012 23F07F43 		bic	r3, r3, #-16777216
 355              		.loc 1 189 15
 356 0016 0122     		movs	r2, #1
 357 0018 02FA03F3 		lsl	r3, r2, r3
 358 001c FB60     		str	r3, [r7, #12]
 190:Drivers/Library/StdDriver/src/sys.c ****     u32tmpAddr = (uint32_t)&SYS->IPRST0 + ((u32ModuleIndex >> 24UL));
 359              		.loc 1 190 60
 360 001e 7B68     		ldr	r3, [r7, #4]
 361 0020 1B0E     		lsrs	r3, r3, #24
 362              		.loc 1 190 16
 363 0022 03F18043 		add	r3, r3, #1073741824
 364 0026 0833     		adds	r3, r3, #8
 365 0028 BB60     		str	r3, [r7, #8]
 191:Drivers/Library/StdDriver/src/sys.c ****     *(uint32_t *)u32tmpAddr |= u32tmpVal;
 366              		.loc 1 191 29
 367 002a BB68     		ldr	r3, [r7, #8]
 368 002c 1968     		ldr	r1, [r3]
 369 002e BB68     		ldr	r3, [r7, #8]
 370 0030 FA68     		ldr	r2, [r7, #12]
 371 0032 0A43     		orrs	r2, r2, r1
 372 0034 1A60     		str	r2, [r3]
 192:Drivers/Library/StdDriver/src/sys.c **** 
 193:Drivers/Library/StdDriver/src/sys.c ****     /* Release corresponding module from reset state */
 194:Drivers/Library/StdDriver/src/sys.c ****     u32tmpVal = ~(1UL << (u32ModuleIndex & 0x00ffffffUL));
 373              		.loc 1 194 42
 374 0036 7B68     		ldr	r3, [r7, #4]
 375 0038 23F07F43 		bic	r3, r3, #-16777216
 376              		.loc 1 194 23
 377 003c 0122     		movs	r2, #1
 378 003e 02FA03F3 		lsl	r3, r2, r3
 379              		.loc 1 194 15
 380 0042 DB43     		mvns	r3, r3
 381 0044 FB60     		str	r3, [r7, #12]
 195:Drivers/Library/StdDriver/src/sys.c ****     *(uint32_t *)u32tmpAddr &= u32tmpVal;
 382              		.loc 1 195 29
 383 0046 BB68     		ldr	r3, [r7, #8]
 384 0048 1968     		ldr	r1, [r3]
 385 004a BB68     		ldr	r3, [r7, #8]
 386 004c FA68     		ldr	r2, [r7, #12]
 387 004e 0A40     		ands	r2, r2, r1
 388 0050 1A60     		str	r2, [r3]
 196:Drivers/Library/StdDriver/src/sys.c **** }
 389              		.loc 1 196 1
ARM GAS  /tmp/ccavsG2p.s 			page 11


 390 0052 00BF     		nop
 391 0054 1437     		adds	r7, r7, #20
 392              	.LCFI33:
 393              		.cfi_def_cfa_offset 4
 394 0056 BD46     		mov	sp, r7
 395              	.LCFI34:
 396              		.cfi_def_cfa_register 13
 397              		@ sp needed
 398 0058 5DF8047B 		ldr	r7, [sp], #4
 399              	.LCFI35:
 400              		.cfi_restore 7
 401              		.cfi_def_cfa_offset 0
 402 005c 7047     		bx	lr
 403              		.cfi_endproc
 404              	.LFE202:
 406              		.section	.text.SYS_EnableBOD,"ax",%progbits
 407              		.align	1
 408              		.global	SYS_EnableBOD
 409              		.syntax unified
 410              		.thumb
 411              		.thumb_func
 412              		.fpu fpv4-sp-d16
 414              	SYS_EnableBOD:
 415              	.LFB203:
 197:Drivers/Library/StdDriver/src/sys.c **** 
 198:Drivers/Library/StdDriver/src/sys.c **** /**
 199:Drivers/Library/StdDriver/src/sys.c ****   * @brief      Enable and configure Brown-out detector function
 200:Drivers/Library/StdDriver/src/sys.c ****   * @param[in]  i32Mode is reset or interrupt mode. Including :
 201:Drivers/Library/StdDriver/src/sys.c ****   *             - \ref SYS_BODCTL_BOD_RST_EN
 202:Drivers/Library/StdDriver/src/sys.c ****   *             - \ref SYS_BODCTL_BOD_INTERRUPT_EN
 203:Drivers/Library/StdDriver/src/sys.c ****   * @param[in]  u32BODLevel is Brown-out voltage level. Including :
 204:Drivers/Library/StdDriver/src/sys.c ****   *             - \ref SYS_BODCTL_BODVL_3_0V
 205:Drivers/Library/StdDriver/src/sys.c ****   *             - \ref SYS_BODCTL_BODVL_2_8V
 206:Drivers/Library/StdDriver/src/sys.c ****   *             - \ref SYS_BODCTL_BODVL_2_6V
 207:Drivers/Library/StdDriver/src/sys.c ****   *             - \ref SYS_BODCTL_BODVL_2_4V
 208:Drivers/Library/StdDriver/src/sys.c ****   *             - \ref SYS_BODCTL_BODVL_2_2V
 209:Drivers/Library/StdDriver/src/sys.c ****   *             - \ref SYS_BODCTL_BODVL_2_0V
 210:Drivers/Library/StdDriver/src/sys.c ****   *             - \ref SYS_BODCTL_BODVL_1_8V
 211:Drivers/Library/StdDriver/src/sys.c ****   *             - \ref SYS_BODCTL_BODVL_1_6V
 212:Drivers/Library/StdDriver/src/sys.c ****   * @return     None
 213:Drivers/Library/StdDriver/src/sys.c ****   * @details    This function configure Brown-out detector reset or interrupt mode, enable Brown-ou
 214:Drivers/Library/StdDriver/src/sys.c ****   *             The register write-protection function should be disabled before using this functio
 215:Drivers/Library/StdDriver/src/sys.c ****   */
 216:Drivers/Library/StdDriver/src/sys.c **** void SYS_EnableBOD(int32_t i32Mode, uint32_t u32BODLevel)
 217:Drivers/Library/StdDriver/src/sys.c **** {
 416              		.loc 1 217 1
 417              		.cfi_startproc
 418              		@ args = 0, pretend = 0, frame = 8
 419              		@ frame_needed = 1, uses_anonymous_args = 0
 420              		@ link register save eliminated.
 421 0000 80B4     		push	{r7}
 422              	.LCFI36:
 423              		.cfi_def_cfa_offset 4
 424              		.cfi_offset 7, -4
 425 0002 83B0     		sub	sp, sp, #12
 426              	.LCFI37:
 427              		.cfi_def_cfa_offset 16
ARM GAS  /tmp/ccavsG2p.s 			page 12


 428 0004 00AF     		add	r7, sp, #0
 429              	.LCFI38:
 430              		.cfi_def_cfa_register 7
 431 0006 7860     		str	r0, [r7, #4]
 432 0008 3960     		str	r1, [r7]
 218:Drivers/Library/StdDriver/src/sys.c ****     /* Enable Brown-out Detector function */
 219:Drivers/Library/StdDriver/src/sys.c ****     SYS->BODCTL |= SYS_BODCTL_BODEN_Msk;
 433              		.loc 1 219 17
 434 000a 4FF08043 		mov	r3, #1073741824
 435 000e 9B69     		ldr	r3, [r3, #24]
 436 0010 4FF08042 		mov	r2, #1073741824
 437 0014 43F00103 		orr	r3, r3, #1
 438 0018 9361     		str	r3, [r2, #24]
 220:Drivers/Library/StdDriver/src/sys.c **** 
 221:Drivers/Library/StdDriver/src/sys.c ****     /* Enable Brown-out interrupt or reset function */
 222:Drivers/Library/StdDriver/src/sys.c ****     SYS->BODCTL = (SYS->BODCTL & ~SYS_BODCTL_BODRSTEN_Msk) | (uint32_t)i32Mode;
 439              		.loc 1 222 23
 440 001a 4FF08043 		mov	r3, #1073741824
 441 001e 9B69     		ldr	r3, [r3, #24]
 442              		.loc 1 222 32
 443 0020 23F00802 		bic	r2, r3, #8
 444              		.loc 1 222 62
 445 0024 7B68     		ldr	r3, [r7, #4]
 446              		.loc 1 222 8
 447 0026 4FF08041 		mov	r1, #1073741824
 448              		.loc 1 222 60
 449 002a 1343     		orrs	r3, r3, r2
 450              		.loc 1 222 17
 451 002c 8B61     		str	r3, [r1, #24]
 223:Drivers/Library/StdDriver/src/sys.c **** 
 224:Drivers/Library/StdDriver/src/sys.c ****     /* Select Brown-out Detector threshold voltage */
 225:Drivers/Library/StdDriver/src/sys.c ****     SYS->BODCTL = (SYS->BODCTL & ~SYS_BODCTL_BODVL_Msk) | u32BODLevel;
 452              		.loc 1 225 23
 453 002e 4FF08043 		mov	r3, #1073741824
 454 0032 9B69     		ldr	r3, [r3, #24]
 455              		.loc 1 225 32
 456 0034 23F4E022 		bic	r2, r3, #458752
 457              		.loc 1 225 8
 458 0038 4FF08041 		mov	r1, #1073741824
 459              		.loc 1 225 57
 460 003c 3B68     		ldr	r3, [r7]
 461 003e 1343     		orrs	r3, r3, r2
 462              		.loc 1 225 17
 463 0040 8B61     		str	r3, [r1, #24]
 226:Drivers/Library/StdDriver/src/sys.c **** }
 464              		.loc 1 226 1
 465 0042 00BF     		nop
 466 0044 0C37     		adds	r7, r7, #12
 467              	.LCFI39:
 468              		.cfi_def_cfa_offset 4
 469 0046 BD46     		mov	sp, r7
 470              	.LCFI40:
 471              		.cfi_def_cfa_register 13
 472              		@ sp needed
 473 0048 5DF8047B 		ldr	r7, [sp], #4
 474              	.LCFI41:
 475              		.cfi_restore 7
ARM GAS  /tmp/ccavsG2p.s 			page 13


 476              		.cfi_def_cfa_offset 0
 477 004c 7047     		bx	lr
 478              		.cfi_endproc
 479              	.LFE203:
 481              		.section	.text.SYS_DisableBOD,"ax",%progbits
 482              		.align	1
 483              		.global	SYS_DisableBOD
 484              		.syntax unified
 485              		.thumb
 486              		.thumb_func
 487              		.fpu fpv4-sp-d16
 489              	SYS_DisableBOD:
 490              	.LFB204:
 227:Drivers/Library/StdDriver/src/sys.c **** 
 228:Drivers/Library/StdDriver/src/sys.c **** /**
 229:Drivers/Library/StdDriver/src/sys.c ****   * @brief      Disable Brown-out detector function
 230:Drivers/Library/StdDriver/src/sys.c ****   * @param      None
 231:Drivers/Library/StdDriver/src/sys.c ****   * @return     None
 232:Drivers/Library/StdDriver/src/sys.c ****   * @details    This function disable Brown-out detector function.
 233:Drivers/Library/StdDriver/src/sys.c ****   *             The register write-protection function should be disabled before using this functio
 234:Drivers/Library/StdDriver/src/sys.c ****   */
 235:Drivers/Library/StdDriver/src/sys.c **** void SYS_DisableBOD(void)
 236:Drivers/Library/StdDriver/src/sys.c **** {
 491              		.loc 1 236 1
 492              		.cfi_startproc
 493              		@ args = 0, pretend = 0, frame = 0
 494              		@ frame_needed = 1, uses_anonymous_args = 0
 495              		@ link register save eliminated.
 496 0000 80B4     		push	{r7}
 497              	.LCFI42:
 498              		.cfi_def_cfa_offset 4
 499              		.cfi_offset 7, -4
 500 0002 00AF     		add	r7, sp, #0
 501              	.LCFI43:
 502              		.cfi_def_cfa_register 7
 237:Drivers/Library/StdDriver/src/sys.c ****     SYS->BODCTL &= ~SYS_BODCTL_BODEN_Msk;
 503              		.loc 1 237 17
 504 0004 4FF08043 		mov	r3, #1073741824
 505 0008 9B69     		ldr	r3, [r3, #24]
 506 000a 4FF08042 		mov	r2, #1073741824
 507 000e 23F00103 		bic	r3, r3, #1
 508 0012 9361     		str	r3, [r2, #24]
 238:Drivers/Library/StdDriver/src/sys.c **** }
 509              		.loc 1 238 1
 510 0014 00BF     		nop
 511 0016 BD46     		mov	sp, r7
 512              	.LCFI44:
 513              		.cfi_def_cfa_register 13
 514              		@ sp needed
 515 0018 5DF8047B 		ldr	r7, [sp], #4
 516              	.LCFI45:
 517              		.cfi_restore 7
 518              		.cfi_def_cfa_offset 0
 519 001c 7047     		bx	lr
 520              		.cfi_endproc
 521              	.LFE204:
 523              		.section	.text.SYS_SetPowerLevel,"ax",%progbits
ARM GAS  /tmp/ccavsG2p.s 			page 14


 524              		.align	1
 525              		.global	SYS_SetPowerLevel
 526              		.syntax unified
 527              		.thumb
 528              		.thumb_func
 529              		.fpu fpv4-sp-d16
 531              	SYS_SetPowerLevel:
 532              	.LFB205:
 239:Drivers/Library/StdDriver/src/sys.c **** 
 240:Drivers/Library/StdDriver/src/sys.c **** /**
 241:Drivers/Library/StdDriver/src/sys.c ****   * @brief      Set Power Level
 242:Drivers/Library/StdDriver/src/sys.c ****   * @param[in]  u32PowerLevel is power level setting. Including :
 243:Drivers/Library/StdDriver/src/sys.c ****   *             - \ref SYS_PLCTL_PLSEL_PL0
 244:Drivers/Library/StdDriver/src/sys.c ****   *             - \ref SYS_PLCTL_PLSEL_PL1
 245:Drivers/Library/StdDriver/src/sys.c ****   * @return     None
 246:Drivers/Library/StdDriver/src/sys.c ****   * @details    This function select power level.
 247:Drivers/Library/StdDriver/src/sys.c ****   *             The register write-protection function should be disabled before using this functio
 248:Drivers/Library/StdDriver/src/sys.c ****   */
 249:Drivers/Library/StdDriver/src/sys.c **** void SYS_SetPowerLevel(uint32_t u32PowerLevel)
 250:Drivers/Library/StdDriver/src/sys.c **** {
 533              		.loc 1 250 1
 534              		.cfi_startproc
 535              		@ args = 0, pretend = 0, frame = 8
 536              		@ frame_needed = 1, uses_anonymous_args = 0
 537              		@ link register save eliminated.
 538 0000 80B4     		push	{r7}
 539              	.LCFI46:
 540              		.cfi_def_cfa_offset 4
 541              		.cfi_offset 7, -4
 542 0002 83B0     		sub	sp, sp, #12
 543              	.LCFI47:
 544              		.cfi_def_cfa_offset 16
 545 0004 00AF     		add	r7, sp, #0
 546              	.LCFI48:
 547              		.cfi_def_cfa_register 7
 548 0006 7860     		str	r0, [r7, #4]
 251:Drivers/Library/StdDriver/src/sys.c ****     /* Set power voltage level */
 252:Drivers/Library/StdDriver/src/sys.c ****     SYS->PLCTL = (SYS->PLCTL & (~SYS_PLCTL_PLSEL_Msk)) | (u32PowerLevel);
 549              		.loc 1 252 22
 550 0008 4FF08043 		mov	r3, #1073741824
 551 000c D3F8F831 		ldr	r3, [r3, #504]
 552              		.loc 1 252 30
 553 0010 23F00302 		bic	r2, r3, #3
 554              		.loc 1 252 8
 555 0014 4FF08041 		mov	r1, #1073741824
 556              		.loc 1 252 56
 557 0018 7B68     		ldr	r3, [r7, #4]
 558 001a 1343     		orrs	r3, r3, r2
 559              		.loc 1 252 16
 560 001c C1F8F831 		str	r3, [r1, #504]
 253:Drivers/Library/StdDriver/src/sys.c **** }
 561              		.loc 1 253 1
 562 0020 00BF     		nop
 563 0022 0C37     		adds	r7, r7, #12
 564              	.LCFI49:
 565              		.cfi_def_cfa_offset 4
 566 0024 BD46     		mov	sp, r7
ARM GAS  /tmp/ccavsG2p.s 			page 15


 567              	.LCFI50:
 568              		.cfi_def_cfa_register 13
 569              		@ sp needed
 570 0026 5DF8047B 		ldr	r7, [sp], #4
 571              	.LCFI51:
 572              		.cfi_restore 7
 573              		.cfi_def_cfa_offset 0
 574 002a 7047     		bx	lr
 575              		.cfi_endproc
 576              	.LFE205:
 578              		.section	.text.SYS_SetVRef,"ax",%progbits
 579              		.align	1
 580              		.global	SYS_SetVRef
 581              		.syntax unified
 582              		.thumb
 583              		.thumb_func
 584              		.fpu fpv4-sp-d16
 586              	SYS_SetVRef:
 587              	.LFB206:
 254:Drivers/Library/StdDriver/src/sys.c **** 
 255:Drivers/Library/StdDriver/src/sys.c **** /**
 256:Drivers/Library/StdDriver/src/sys.c ****   * @brief      Set Reference Voltage
 257:Drivers/Library/StdDriver/src/sys.c ****   * @param[in]  u32VRefCTL is reference voltage setting. Including :
 258:Drivers/Library/StdDriver/src/sys.c ****   *             - \ref SYS_VREFCTL_VREF_PIN
 259:Drivers/Library/StdDriver/src/sys.c ****   *             - \ref SYS_VREFCTL_VREF_1_6V
 260:Drivers/Library/StdDriver/src/sys.c ****   *             - \ref SYS_VREFCTL_VREF_2_0V
 261:Drivers/Library/StdDriver/src/sys.c ****   *             - \ref SYS_VREFCTL_VREF_2_5V
 262:Drivers/Library/StdDriver/src/sys.c ****   *             - \ref SYS_VREFCTL_VREF_3_0V
 263:Drivers/Library/StdDriver/src/sys.c ****   *             - \ref SYS_VREFCTL_VREF_AVDD
 264:Drivers/Library/StdDriver/src/sys.c ****   * @return     None
 265:Drivers/Library/StdDriver/src/sys.c ****   * @details    This function select reference voltage.
 266:Drivers/Library/StdDriver/src/sys.c ****   *             The register write-protection function should be disabled before using this functio
 267:Drivers/Library/StdDriver/src/sys.c ****   */
 268:Drivers/Library/StdDriver/src/sys.c **** void SYS_SetVRef(uint32_t u32VRefCTL)
 269:Drivers/Library/StdDriver/src/sys.c **** {
 588              		.loc 1 269 1
 589              		.cfi_startproc
 590              		@ args = 0, pretend = 0, frame = 8
 591              		@ frame_needed = 1, uses_anonymous_args = 0
 592              		@ link register save eliminated.
 593 0000 80B4     		push	{r7}
 594              	.LCFI52:
 595              		.cfi_def_cfa_offset 4
 596              		.cfi_offset 7, -4
 597 0002 83B0     		sub	sp, sp, #12
 598              	.LCFI53:
 599              		.cfi_def_cfa_offset 16
 600 0004 00AF     		add	r7, sp, #0
 601              	.LCFI54:
 602              		.cfi_def_cfa_register 7
 603 0006 7860     		str	r0, [r7, #4]
 270:Drivers/Library/StdDriver/src/sys.c ****     /* Set reference voltage */
 271:Drivers/Library/StdDriver/src/sys.c ****     SYS->VREFCTL = (SYS->VREFCTL & (~SYS_VREFCTL_VREFCTL_Msk)) | (u32VRefCTL);
 604              		.loc 1 271 24
 605 0008 4FF08043 		mov	r3, #1073741824
 606 000c 9B6A     		ldr	r3, [r3, #40]
 607              		.loc 1 271 34
ARM GAS  /tmp/ccavsG2p.s 			page 16


 608 000e 23F01F02 		bic	r2, r3, #31
 609              		.loc 1 271 8
 610 0012 4FF08041 		mov	r1, #1073741824
 611              		.loc 1 271 64
 612 0016 7B68     		ldr	r3, [r7, #4]
 613 0018 1343     		orrs	r3, r3, r2
 614              		.loc 1 271 18
 615 001a 8B62     		str	r3, [r1, #40]
 272:Drivers/Library/StdDriver/src/sys.c **** }
 616              		.loc 1 272 1
 617 001c 00BF     		nop
 618 001e 0C37     		adds	r7, r7, #12
 619              	.LCFI55:
 620              		.cfi_def_cfa_offset 4
 621 0020 BD46     		mov	sp, r7
 622              	.LCFI56:
 623              		.cfi_def_cfa_register 13
 624              		@ sp needed
 625 0022 5DF8047B 		ldr	r7, [sp], #4
 626              	.LCFI57:
 627              		.cfi_restore 7
 628              		.cfi_def_cfa_offset 0
 629 0026 7047     		bx	lr
 630              		.cfi_endproc
 631              	.LFE206:
 633              		.text
 634              	.Letext0:
 635              		.file 2 "/usr/lib/gcc/arm-none-eabi/10.3.1/include/stdint.h"
 636              		.file 3 "Drivers/Library/Device/Nuvoton_M480/Include/sys_reg.h"
ARM GAS  /tmp/ccavsG2p.s 			page 17

